L251 LINKER/LOCATER V4.66.93.0                                                          05/01/2022  09:46:42  PAGE 1


L251 LINKER/LOCATER V4.66.93.0, INVOKED BY:
C:\KEIL_V5\C251\BIN\L251.EXE .\Out_File\board.obj, .\Out_File\common.obj, .\Out_File\SEEKFREE_PRINTF.obj, ..\..\Librarie
>> s\libraries\STC_DFP.LIB, .\Out_File\zf_adc.obj, .\Out_File\zf_delay.obj, .\Out_File\zf_exti.obj, .\Out_File\zf_gpio.o
>> bj, .\Out_File\zf_iic.obj, .\Out_File\zf_nvic.obj, .\Out_File\zf_pwm.obj, .\Out_File\zf_spi.obj, .\Out_File\zf_tim.ob
>> j, .\Out_File\zf_uart.obj, .\Out_File\SEEKFREE_18TFT.obj, .\Out_File\SEEKFREE_ABSOLUTE_ENCODER.obj, .\Out_File\SEEKFR
>> EE_FONT.obj, .\Out_File\SEEKFREE_ICM20602.obj, .\Out_File\SEEKFREE_IIC.obj, .\Out_File\SEEKFREE_IPS114_SPI.obj, .\Out
>> _File\SEEKFREE_MPU6050.obj, .\Out_File\SEEKFREE_OLED.obj, .\Out_File\SEEKFREE_TSL1401.obj, .\Out_File\SEEKFREE_VIRSCO
>> .obj, .\Out_File\SEEKFREE_WIRELESS.obj, .\Out_File\SEEKFREE_AT24C02.obj, .\Out_File\SEEKFREE_BLUETOOTH_CH9141.obj, .\
>> Out_File\isr.obj, .\Out_File\main.obj, .\Out_File\adc.obj, .\Out_File\display.obj, .\Out_File\init.obj, .\Out_File\mo
>> tor.obj, .\Out_File\pid.obj, .\Out_File\steer.obj, .\Out_File\key.obj, .\Out_File\encoder.obj, .\Out_File\up.obj, .\O
>> ut_File\element.obj, .\Out_File\ccd.obj TO .\Out_File\SEEKFREE PRINT (.\Out_File\SEEKFREE.map) CASE DISABLEWARNING (1
>> 6, 57) REMOVEUNUSED CLASSES (EDATA (0X0-0X1FFF), HDATA (0X0-0X1FFF))


CPU MODE:     251 SOURCE MODE
INTR FRAME:   2 BYTES SAVED ON INTERRUPT
MEMORY MODEL: XSMALL WITH FLOATING POINT ARITHMETIC


INPUT MODULES INCLUDED:
  .\Out_File\board.obj (board)
         COMMENT TYPE 0: C251 V5.60.0
  .\Out_File\common.obj (common)
         COMMENT TYPE 0: C251 V5.60.0
  .\Out_File\SEEKFREE_PRINTF.obj (SEEKFREE_PRINTF)
         COMMENT TYPE 0: C251 V5.60.0
  ..\..\Libraries\libraries\STC_DFP.LIB (DFPMU_SP)
         COMMENT TYPE 0: A251 V4.69.5.0
  .\Out_File\zf_adc.obj (zf_adc)
         COMMENT TYPE 0: C251 V5.60.0
  .\Out_File\zf_delay.obj (zf_delay)
         COMMENT TYPE 0: C251 V5.60.0
  .\Out_File\zf_exti.obj (zf_exti)
         COMMENT TYPE 0: C251 V5.60.0
  .\Out_File\zf_gpio.obj (zf_gpio)
         COMMENT TYPE 0: C251 V5.60.0
  .\Out_File\zf_iic.obj (zf_iic)
         COMMENT TYPE 0: C251 V5.60.0
  .\Out_File\zf_nvic.obj (zf_nvic)
         COMMENT TYPE 0: C251 V5.60.0
  .\Out_File\zf_pwm.obj (zf_pwm)
         COMMENT TYPE 0: C251 V5.60.0
  .\Out_File\zf_spi.obj (zf_spi)
         COMMENT TYPE 0: C251 V5.60.0
  .\Out_File\zf_tim.obj (zf_tim)
         COMMENT TYPE 0: C251 V5.60.0
  .\Out_File\zf_uart.obj (zf_uart)
         COMMENT TYPE 0: C251 V5.60.0
  .\Out_File\SEEKFREE_18TFT.obj (SEEKFREE_18TFT)
         COMMENT TYPE 0: C251 V5.60.0
  .\Out_File\SEEKFREE_ABSOLUTE_ENCODER.obj (SEEKFREE_ABSOLUTE_ENCODER)
         COMMENT TYPE 0: C251 V5.60.0
  .\Out_File\SEEKFREE_FONT.obj (SEEKFREE_FONT)
         COMMENT TYPE 0: C251 V5.60.0
  .\Out_File\SEEKFREE_ICM20602.obj (SEEKFREE_ICM20602)
         COMMENT TYPE 0: C251 V5.60.0
  .\Out_File\SEEKFREE_IIC.obj (SEEKFREE_IIC)
         COMMENT TYPE 0: C251 V5.60.0
  .\Out_File\SEEKFREE_IPS114_SPI.obj (SEEKFREE_IPS114_SPI)
         COMMENT TYPE 0: C251 V5.60.0
  .\Out_File\SEEKFREE_MPU6050.obj (SEEKFREE_MPU6050)
         COMMENT TYPE 0: C251 V5.60.0
  .\Out_File\SEEKFREE_OLED.obj (SEEKFREE_OLED)
         COMMENT TYPE 0: C251 V5.60.0
  .\Out_File\SEEKFREE_TSL1401.obj (SEEKFREE_TSL1401)
         COMMENT TYPE 0: C251 V5.60.0
L251 LINKER/LOCATER V4.66.93.0                                                        05/01/2022  09:46:42  PAGE 2


  .\Out_File\SEEKFREE_VIRSCO.obj (SEEKFREE_VIRSCO)
         COMMENT TYPE 0: C251 V5.60.0
  .\Out_File\SEEKFREE_WIRELESS.obj (SEEKFREE_WIRELESS)
         COMMENT TYPE 0: C251 V5.60.0
  .\Out_File\SEEKFREE_AT24C02.obj (SEEKFREE_AT24C02)
         COMMENT TYPE 0: C251 V5.60.0
  .\Out_File\SEEKFREE_BLUETOOTH_CH9141.obj (SEEKFREE_BLUETOOTH_CH9141)
         COMMENT TYPE 0: C251 V5.60.0
  .\Out_File\isr.obj (isr)
         COMMENT TYPE 0: C251 V5.60.0
  .\Out_File\main.obj (main)
         COMMENT TYPE 0: C251 V5.60.0
  .\Out_File\adc.obj (adc)
         COMMENT TYPE 0: C251 V5.60.0
  .\Out_File\display.obj (display)
         COMMENT TYPE 0: C251 V5.60.0
  .\Out_File\init.obj (init)
         COMMENT TYPE 0: C251 V5.60.0
  .\Out_File\motor.obj (motor)
         COMMENT TYPE 0: C251 V5.60.0
  .\Out_File\pid.obj (pid)
         COMMENT TYPE 0: C251 V5.60.0
  .\Out_File\steer.obj (steer)
         COMMENT TYPE 0: C251 V5.60.0
  .\Out_File\key.obj (key)
         COMMENT TYPE 0: C251 V5.60.0
  .\Out_File\encoder.obj (encoder)
         COMMENT TYPE 0: C251 V5.60.0
  .\Out_File\up.obj (up)
         COMMENT TYPE 0: C251 V5.60.0
  .\Out_File\element.obj (element)
         COMMENT TYPE 0: C251 V5.60.0
  .\Out_File\ccd.obj (ccd)
         COMMENT TYPE 0: C251 V5.60.0
  C:\KEIL_V5\C251\LIB\C2SXS.LIB (?C_START)
         COMMENT TYPE 0: A251 V4.69.6.0
  C:\KEIL_V5\C251\LIB\C2SXS.LIB (?C?INITEDATA)
         COMMENT TYPE 0: A251 V4.69.6.0
  C:\KEIL_V5\C251\LIB\C2SXS.LIB (?C?SIDIV)
         COMMENT TYPE 0: A251 V4.69.6.0
  C:\KEIL_V5\C251\LIB\C2SXS.LIB (?C?LMUL)
         COMMENT TYPE 0: A251 V4.69.6.0
  C:\KEIL_V5\C251\LIB\C2SXS.LIB (?C?LIMUL)
         COMMENT TYPE 0: A251 V4.69.6.0
  C:\KEIL_V5\C251\LIB\C2SXS.LIB (?C?ULDIV)
         COMMENT TYPE 0: A251 V4.69.6.0
  C:\KEIL_V5\C251\LIB\C2SXS.LIB (?C?SLDIV)
         COMMENT TYPE 0: A251 V4.69.6.0
  C:\KEIL_V5\C251\LIB\C2SXS.LIB (ABS)
         COMMENT TYPE 0: C251 V5.58.7
  C:\KEIL_V5\C251\LIB\C2SXS.LIB (memcpy)
         COMMENT TYPE 0: C251 V5.58.7
  C:\KEIL_V5\C251\LIB\C2SXS.LIB (?C?INITEDATA_END)
         COMMENT TYPE 0: A251 V4.69.6.0


ACTIVE MEMORY CLASSES OF MODULE:  .\Out_File\SEEKFREE (board)

BASE        START       END         USED      MEMORY CLASS
==========================================================
000000H     000000H     001FFFH     0017ADH   EDATA
000000H     000000H     001FFFH               HDATA
FF0000H     FF0000H     FFFFFFH     003BDBH   CODE
000000H     FF0000H     FFFFFFH     000288H   HCONST
000000H     000000H     00007FH     000008H   DATA
L251 LINKER/LOCATER V4.66.93.0                                                        05/01/2022  09:46:42  PAGE 3




MEMORY MAP OF MODULE:  .\Out_File\SEEKFREE (board)


START     STOP      LENGTH    ALIGN  RELOC    MEMORY CLASS   SEGMENT NAME
=========================================================================
000000H   000007H   000008H   ---    AT..     DATA           "REG BANK 0"
000008H   0010E2H   0010DBH   BYTE   UNIT     EDATA          ?ED?CCD
0010E3H   0012E4H   000202H   BYTE   UNIT     EDATA          ?ED?SEEKFREE_TSL1401
0012E5H   0013B1H   0000CDH   BYTE   UNIT     EDATA          ?ED?ZF_UART
0013B2H   001458H   0000A7H   BYTE   UNIT     EDATA          _EDATA_GROUP_
001459H   0014E2H   00008AH   BYTE   UNIT     EDATA          ?ED?SEEKFREE_BLUETOOTH_CH9141
0014E3H   00154CH   00006AH   BYTE   UNIT     EDATA          ?ED?UP
00154DH   0015A4H   000058H   BYTE   UNIT     EDATA          ?ED?PID
0015A5H   0015EAH   000046H   BYTE   UNIT     EDATA          ?ED?ADC
0015EBH   001620H   000036H   BYTE   UNIT     EDATA          ?ED?ENCODER
001621H   001642H   000022H   BYTE   UNIT     EDATA          ?ED?DISPLAY
001643H   00165EH   00001CH   BYTE   UNIT     EDATA          ?ED?MOTOR
00165FH   001670H   000012H   BYTE   UNIT     EDATA          ?ED?STEER
001671H   00167EH   00000EH   BYTE   UNIT     EDATA          ?ED?ELEMENT
00167FH   00168AH   00000CH   BYTE   UNIT     EDATA          ?ED?SEEKFREE_ICM20602
00168BH   001696H   00000CH   BYTE   UNIT     EDATA          ?ED?SEEKFREE_MPU6050
001697H   0016A0H   00000AH   BYTE   UNIT     EDATA          ?ED?SEEKFREE_VIRSCO
0016A1H   0016A7H   000007H   BYTE   UNIT     EDATA          ?ED?SEEKFREE_IIC
0016A8H   0016ABH   000004H   BYTE   UNIT     EDATA          ?ED?BOARD
0016ACH   0016AFH   000004H   BYTE   UNIT     EDATA          ?ED?ZF_DELAY
0016B0H   0016B1H   000002H   BYTE   UNIT     EDATA          ?ED?COMMON
0016B2H   0016B3H   000002H   BYTE   UNIT     EDATA          ?ED?KEY
0016B4H   0016B4H   000001H   BYTE   UNIT     EDATA          ?ED?ISR
0016B5H   0017B4H   000100H   BYTE   UNIT     EDATA          ?STACK
0017B5H   FEFFFFH   FEE84BH   ---    ---      **GAP**
FF0000H   FF0002H   000003H   ---    OFFS..   CODE           ?CO?start251?4
FF0003H   FF0005H   000003H   ---    OFFS..   CODE           ?PR?IV?0
FF0006H   FF0009H   000004H   BYTE   UNIT     CODE           ?PR?FPADD?DFPMU_SP
FF000AH   FF000AH   000001H   BYTE   INSEG    CODE           ?PR?INT0_ISR?ISR
FF000BH   FF000DH   000003H   ---    OFFS..   CODE           ?PR?IV?1
FF000EH   FF0011H   000004H   BYTE   UNIT     CODE           ?PR?FPSUB?DFPMU_SP
FF0012H   FF0012H   000001H   BYTE   INSEG    CODE           ?PR?INT1_ISR?ISR
FF0013H   FF0015H   000003H   ---    OFFS..   CODE           ?PR?IV?2
FF0016H   FF0019H   000004H   BYTE   UNIT     CODE           ?PR?FPMUL?DFPMU_SP
FF001AH   FF001AH   000001H   BYTE   INSEG    CODE           ?PR?TM0_ISR?ISR
FF001BH   FF001DH   000003H   ---    OFFS..   CODE           ?PR?IV?3
FF001EH   FF0021H   000004H   BYTE   UNIT     CODE           ?PR?FPDIV?DFPMU_SP
FF0022H   FF0022H   000001H   BYTE   INSEG    CODE           ?PR?TM1_ISR?ISR
FF0023H   FF0025H   000003H   ---    OFFS..   CODE           ?PR?IV?4
FF0026H   FF003EH   000019H   BYTE   INSEG    CODE           ?PR?BLUETOOTH_CH9141_UART_CALLBACK?SEEKFREE_BLUETOOTH_CH91
                                                             -41
FF003FH   FF0042H   000004H   BYTE   UNIT     CODE           ?PR?FCASTL?DFPMU_SP
FF0043H   FF0045H   000003H   ---    OFFS..   CODE           ?PR?IV?8
FF0046H   FF0051H   00000CH   BYTE   UNIT     CODE           ?PR?FPCMP?DFPMU_SP
FF0052H   FF0052H   000001H   ---    ---      **GAP**
FF0053H   FF0055H   000003H   ---    OFFS..   CODE           ?PR?IV?10
FF0056H   FF0058H   000003H   BYTE   INSEG    CODE           ?PR?ENABLEGLOBALIRQ?BOARD
FF0059H   FF005AH   000002H   ---    ---      **GAP**
FF005BH   FF005DH   000003H   ---    OFFS..   CODE           ?PR?IV?11
FF005EH   FF0060H   000003H   BYTE   INSEG    CODE           ?PR?DISABLEGLOBALIRQ?BOARD
FF0061H   FF0062H   000002H   ---    ---      **GAP**
FF0063H   FF0065H   000003H   ---    OFFS..   CODE           ?PR?IV?12
FF0066H   FF007CH   000017H   BYTE   INSEG    CODE           ?PR?DELAY_MS?ZF_DELAY
FF007DH   FF0082H   000006H   BYTE   UNIT     CODE           ?PR?CASTF?DFPMU_SP
FF0083H   FF0085H   000003H   ---    OFFS..   CODE           ?PR?IV?16
FF0086H   FF0088H   000003H   BYTE   INSEG    CODE           ?PR?WIRELESS_UART_CALLBACK?SEEKFREE_WIRELESS
FF0089H   FF008AH   000002H   ---    ---      **GAP**
FF008BH   FF008DH   000003H   ---    OFFS..   CODE           ?PR?IV?17
L251 LINKER/LOCATER V4.66.93.0                                                        05/01/2022  09:46:42  PAGE 4


FF008EH   FF0091H   000004H   BYTE   UNIT     HCONST         ?HC?UP
FF0092H   FF0092H   000001H   ---    ---      **GAP**
FF0093H   FF0095H   000003H   ---    OFFS..   CODE           ?PR?IV?18
FF0096H   FF009AH   000005H   ---    ---      **GAP**
FF009BH   FF009DH   000003H   ---    OFFS..   CODE           ?PR?IV?19
FF009EH   FF00A2H   000005H   ---    ---      **GAP**
FF00A3H   FF00A5H   000003H   ---    OFFS..   CODE           ?PR?IV?20
FF00A6H   FF0EADH   000E08H   BYTE   UNIT     CODE           ?CO?SEEKFREE_FONT
FF0EAEH   FF13A7H   0004FAH   BYTE   INSEG    CODE           ?PR?ZF_SPRINTF?SEEKFREE_PRINTF
FF13A8H   FF17F4H   00044DH   BYTE   INSEG    CODE           ?PR?CCD_XJ?CCD
FF17F5H   FF1BEBH   0003F7H   BYTE   INSEG    CODE           ?PR?GPIO_MODE?ZF_GPIO
FF1BECH   FF1ECFH   0002E4H   BYTE   INSEG    CODE           ?PR?PWM_INIT?ZF_PWM
FF1ED0H   FF2170H   0002A1H   BYTE   INSEG    CODE           ?PR?PWM_SET_GPIO?ZF_PWM
FF2171H   FF235FH   0001EFH   BYTE   INSEG    CODE           ?PR?ENCODER_GET?ENCODER
FF2360H   FF251EH   0001BFH   BYTE   INSEG    CODE           ?PR?UART_INIT?ZF_UART
FF251FH   FF268BH   00016DH   BYTE   INSEG    CODE           ?PR?IPS114_INIT?SEEKFREE_IPS114_SPI
FF268CH   FF2783H   0000F8H   BYTE   INSEG    CODE           ?PR?IPS114_SHOWFLOAT?SEEKFREE_IPS114_SPI
FF2784H   FF286DH   0000EAH   BYTE   INSEG    CODE           ?PR?FIFO_WRITE_BUFFER?SEEKFREE_BLUETOOTH_CH9141
FF286EH   FF2951H   0000E4H   BYTE   INSEG    CODE           ?PR?DISPLAY?DISPLAY
FF2952H   FF2A30H   0000DFH   BYTE   INSEG    CODE           ?PR?SPI_INIT?ZF_SPI
FF2A31H   FF2B09H   0000D9H   BYTE   INSEG    CODE           ?PR?IPS114_SHOWINT16?SEEKFREE_IPS114_SPI
FF2B0AH   FF2BDCH   0000D3H   BYTE   UNIT     CODE           ?C?LIB_CODE
FF2BDDH   FF2CA7H   0000CBH   BYTE   INSEG    CODE           ?PR?CCD_STEER_CONTROL?STEER
FF2CA8H   FF2D61H   0000BAH   BYTE   INSEG    CODE           ?PR?SET_CLK?BOARD
FF2D62H   FF2E19H   0000B8H   BYTE   INSEG    CODE           ?PR?PWM_DUTY?ZF_PWM
FF2E1AH   FF2EC4H   0000ABH   BYTE   INSEG    CODE           ?PR?PWM_CONTROL?MOTOR
FF2EC5H   FF2F6FH   0000ABH   BYTE   INSEG    CODE           ?PR?PWM_OUTPUT?MOTOR
FF2F70H   FF301AH   0000ABH   BYTE   INSEG    CODE           ?PR?CCD_FILTER?CCD
FF301BH   FF30C5H   0000ABH   BYTE   INSEG    CODE           ?PR?CCD_FILTER2?CCD
FF30C6H   FF3163H   00009EH   BYTE   INSEG    CODE           ?PR?PID_LINCREASE?PID
FF3164H   FF3201H   00009EH   BYTE   INSEG    CODE           ?PR?PID_RINCREASE?PID
FF3202H   FF329CH   00009BH   BYTE   INSEG    CODE           ?PR?PID_REALIZE?PID
FF329DH   FF3337H   00009BH   BYTE   INSEG    CODE           ?PR?CCD_SZ?ELEMENT
FF3338H   FF33CBH   000094H   BYTE   INSEG    CODE           ?PR?PIT_TIMER_MS?ZF_TIM
FF33CCH   FF345DH   000092H   BYTE   INSEG    CODE           ?PR?NUMBER_CONVERSION_ASCII?SEEKFREE_PRINTF
FF345EH   FF34EDH   000090H   BYTE   INSEG    CODE           ?PR?BOARD_INIT?BOARD
FF34EEH   FF357BH   00008EH   BYTE   INSEG    CODE           ?PR?IPS114_SHOWCHAR?SEEKFREE_IPS114_SPI
FF357CH   FF35E2H   000067H   BYTE   INSEG    CODE           ?PR?TM4_ISR?ISR
FF35E3H   FF3640H   00005EH   BYTE   INSEG    CODE           ?PR?ADC_INIT?ZF_ADC
FF3641H   FF369EH   00005EH   BYTE   INSEG    CODE           ?PR?UART4_ISR?ISR
FF369FH   FF36EFH   000051H   BYTE   INSEG    CODE           ?PR?CTIMER_COUNT_CLEAN?ZF_TIM
FF36F0H   FF373DH   00004EH   BYTE   INSEG    CODE           ?PR?IPS114_SHOWSTR?SEEKFREE_IPS114_SPI
FF373EH   FF378AH   00004DH   BYTE   INSEG    CODE           ?PR?CTIMER_COUNT_READ?ZF_TIM
FF378BH   FF37D4H   00004AH   BYTE   INSEG    CODE           ?PR?CTIMER_COUNT_INIT?ZF_TIM
FF37D5H   FF381CH   000048H   BYTE   INSEG    CODE           ?PR?IPS114_SET_REGION?SEEKFREE_IPS114_SPI
FF381DH   FF3860H   000044H   BYTE   INSEG    CODE           ?PR?MOTOR_INIT?MOTOR
FF3861H   FF38A2H   000042H   BYTE   INSEG    CODE           ?PR?FIFO_HEAD_OFFSET?SEEKFREE_BLUETOOTH_CH9141
FF38A3H   FF38B5H   000013H   BYTE   UNIT     CODE           ?C_C51STARTUP
FF38B6H   FF38DEH   000029H   BYTE   UNIT     CODE           ?C_C51STARTUP?2
FF38DFH   FF38E1H   000003H   BYTE   UNIT     CODE           ?C_C51STARTUP?3
FF38E2H   FF391FH   00003EH   BYTE   INSEG    CODE           ?PR?PRINTF_REVERSE_ORDER?SEEKFREE_PRINTF
FF3920H   FF395CH   00003DH   BYTE   INSEG    CODE           ?PR?UART1_ISR?ISR
FF395DH   FF3998H   00003CH   BYTE   INSEG    CODE           ?PR?IPS114_CLEAR?SEEKFREE_IPS114_SPI
FF3999H   FF39D1H   000039H   BYTE   INSEG    CODE           ?PR?DELAY_INIT?ZF_DELAY
FF39D2H   FF3A06H   000035H   BYTE   INSEG    CODE           ?PR?CCD_COLLECT2?SEEKFREE_TSL1401
FF3A07H   FF3A3BH   000035H   BYTE   INSEG    CODE           ?PR?CCD_COLLECT?SEEKFREE_TSL1401
FF3A3CH   FF3A6BH   000030H   BYTE   INSEG    CODE           ?PR?INIT?INIT
FF3A6CH   FF3A99H   00002EH   BYTE   INSEG    CODE           ?PR?ADC_ONCE?ZF_ADC
FF3A9AH   FF3ABEH   000025H   BYTE   INSEG    CODE           ?PR?STEER_OUTPUT?STEER
FF3ABFH   FF3AE3H   000025H   BYTE   INSEG    CODE           ?PR?MEMCPY?_?MEMCPY
FF3AE4H   FF3B04H   000021H   BYTE   INSEG    CODE           ?PR?CCD_INIT?SEEKFREE_TSL1401
FF3B05H   FF3B23H   00001FH   BYTE   INSEG    CODE           ?PR?IPS114_WRITEDATA_16BIT?SEEKFREE_IPS114_SPI
FF3B24H   FF3B41H   00001EH   BYTE   INSEG    CODE           ?PR?UART2_ISR?ISR
FF3B42H   FF3B5FH   00001EH   BYTE   INSEG    CODE           ?PR?UART3_ISR?ISR
FF3B60H   FF3B72H   000013H   BYTE   INSEG    CODE           ?PR?STEER_INIT?STEER
L251 LINKER/LOCATER V4.66.93.0                                                        05/01/2022  09:46:42  PAGE 5


FF3B73H   FF3B83H   000011H   BYTE   INSEG    CODE           ?PR?MAIN?MAIN
FF3B84H   FF3B91H   00000EH   BYTE   INSEG    CODE           ?PR?SPI_MOSI?ZF_SPI
FF3B92H   FF3B9DH   00000CH   BYTE   INSEG    CODE           ?PR?ENCODER_INIT?ENCODER
FF3B9EH   FF3BA7H   00000AH   BYTE   INSEG    CODE           ?PR?IPS114_WRITEINDEX?SEEKFREE_IPS114_SPI
FF3BA8H   FF3BB1H   00000AH   BYTE   INSEG    CODE           ?PR?IPS114_WRITEDATA?SEEKFREE_IPS114_SPI
FF3BB2H   FF3BBBH   00000AH   BYTE   INSEG    CODE           ?PR?MENU_INIT?DISPLAY
FF3BBCH   FF3BC3H   000008H   BYTE   INSEG    CODE           ?PR?INT2_ISR?ISR
FF3BC4H   FF3BCBH   000008H   BYTE   INSEG    CODE           ?PR?INT3_ISR?ISR
FF3BCCH   FF3BD3H   000008H   BYTE   INSEG    CODE           ?PR?INT4_ISR?ISR
FF3BD4H   FF3BDBH   000008H   BYTE   INSEG    CODE           ?PR?TM2_ISR?ISR
FF3BDCH   FF3BE3H   000008H   BYTE   INSEG    CODE           ?PR?TM3_ISR?ISR
FF3BE4H   FF3BEAH   000007H   BYTE   UNIT     CODE           ?PR?FCHS?DFPMU_SP
FF3BEBH   FF3BF0H   000006H   BYTE   UNIT     CODE           ?PR?FCASTI?DFPMU_SP
FF3BF1H   FF3D74H   000184H   BYTE   UNIT     HCONST         ?C_INITEDATA
FF3D75H   FF3E06H   000092H   BYTE   UNIT     HCONST         ?HC?DISPLAY
FF3E07H   FF3E5EH   000058H   BYTE   UNIT     HCONST         ?HC?ZF_PWM
FF3E5FH   FF3E68H   00000AH   BYTE   UNIT     HCONST         ?HC?SEEKFREE_OLED
FF3E69H   FF3E6EH   000006H   BYTE   UNIT     HCONST         ?HC?SEEKFREE_18TFT
FF3E6FH   FF3E74H   000006H   BYTE   UNIT     HCONST         ?HC?SEEKFREE_IPS114_SPI

* * * * * * * * *   R E M O V E D     S E G M E N T S   * * * * * * * *
   *DEL*:           0001A9H   BYTE   INSEG    CODE           ?PR?GET_CLK?BOARD
   *DEL*:           00000EH   BYTE   INSEG    CODE           ?PR?PUTCHAR?BOARD
   *DEL*:           000004H   BYTE   UNIT     CODE           ?PR?SQRT?DFPMU_SP
   *DEL*:           000006H   BYTE   UNIT     CODE           ?PR?FXAM?DFPMU_SP
   *DEL*:           000007H   BYTE   UNIT     CODE           ?PR?FABS?DFPMU_SP
   *DEL*:           000004H   BYTE   UNIT     CODE           ?PR?SIN?DFPMU_SP
   *DEL*:           000004H   BYTE   UNIT     CODE           ?PR?COS?DFPMU_SP
   *DEL*:           000004H   BYTE   UNIT     CODE           ?PR?TAN?DFPMU_SP
   *DEL*:           00000AH   BYTE   UNIT     CODE           ?PR?ATAN?DFPMU_SP
   *DEL*:           000006H   BYTE   UNIT     CODE           ?PR?FCASTC?DFPMU_SP
   *DEL*:           000004H   BYTE   UNIT     CODE           ?PR?FCLEX?DFPMU_SP
   *DEL*:           000004H   BYTE   UNIT     CODE           ?PR?FINIT?DFPMU_SP
   *DEL*:           000006H   BYTE   UNIT     CODE           ?PR?FPSRR?DFPMU_SP
   *DEL*:           000006H   BYTE   UNIT     CODE           ?PR?FPSRW?DFPMU_SP
   *DEL*:           000006H   BYTE   UNIT     CODE           ?PR?FPCRR?DFPMU_SP
   *DEL*:           000006H   BYTE   UNIT     CODE           ?PR?FPCRW?DFPMU_SP
   *DEL*:           000019H   BYTE   INSEG    CODE           ?PR?DELAY_US?ZF_DELAY
   *DEL*:           00003EH   BYTE   INSEG    CODE           ?PR?EXIT_INIT?ZF_EXTI
   *DEL*:           00006EH   BYTE   INSEG    CODE           ?PR?GPIO_PULL_SET?ZF_GPIO
   *DEL*:           000017H   BYTE   INSEG    CODE           ?PR?SEND_DATA?ZF_IIC
   *DEL*:           00002FH   BYTE   INSEG    CODE           ?PR?IIC_CHANGE_PIN?ZF_IIC
   *DEL*:           00001CH   BYTE   INSEG    CODE           ?PR?RECV_DATA?ZF_IIC
   *DEL*:           000010H   BYTE   INSEG    CODE           ?PR?START?ZF_IIC
   *DEL*:           000045H   BYTE   INSEG    CODE           ?PR?WAIT?ZF_IIC
   *DEL*:           000018H   BYTE   INSEG    CODE           ?PR?SEND_ACK?ZF_IIC
   *DEL*:           000010H   BYTE   INSEG    CODE           ?PR?RECV_ACK?ZF_IIC
   *DEL*:           000010H   BYTE   INSEG    CODE           ?PR?STOP?ZF_IIC
   *DEL*:           000019H   BYTE   INSEG    CODE           ?PR?SEND_NAK?ZF_IIC
   *DEL*:           00005EH   BYTE   INSEG    CODE           ?PR?IIC_INIT?ZF_IIC
   *DEL*:           000075H   BYTE   INSEG    CODE           ?PR?IIC_READ_REG?ZF_IIC
   *DEL*:           00009CH   BYTE   INSEG    CODE           ?PR?IIC_READ_REG_BYTES?ZF_IIC
   *DEL*:           000060H   BYTE   INSEG    CODE           ?PR?IIC_WRITE_REG?ZF_IIC
   *DEL*:           000015H   BYTE   INSEG    CODE           ?PR?IIC_DELAY_US?ZF_IIC
   *DEL*:           000004H   BYTE   UNIT     EDATA          ?ED?IIC_INIT?ZF_IIC
   *DEL*:           000004H   BYTE   UNIT     EDATA          ?ED?IIC_READ_REG?ZF_IIC
   *DEL*:           000003H   BYTE   UNIT     EDATA          ?ED?IIC_READ_REG_BYTES?ZF_IIC
   *DEL*:           00006CH   BYTE   INSEG    CODE           ?PR?NVIC_SETPRIORITY?ZF_NVIC
   *DEL*:           000121H   BYTE   INSEG    CODE           ?PR?PWM_FREQ?ZF_PWM
   *DEL*:           000004H   BYTE   UNIT     EDATA          ?ED?PWM_FREQ?ZF_PWM
   *DEL*:           00001DH   BYTE   INSEG    CODE           ?PR?SPI_CHANGE_MODE?ZF_SPI
   *DEL*:           0000AEH   BYTE   INSEG    CODE           ?PR?SPI_CHANGE_PIN?ZF_SPI
   *DEL*:           000054H   BYTE   INSEG    CODE           ?PR?UART_PUTCHAR?ZF_UART
   *DEL*:           00002DH   BYTE   INSEG    CODE           ?PR?UART_PUTBUFF?ZF_UART
   *DEL*:           00001EH   BYTE   INSEG    CODE           ?PR?UART_PUTSTR?ZF_UART
L251 LINKER/LOCATER V4.66.93.0                                                        05/01/2022  09:46:42  PAGE 6


   *DEL*:           000004H   BYTE   UNIT     EDATA          ?ED?UART_PUTBUFF?ZF_UART
   *DEL*:           000002H   BYTE   UNIT     EDATA          ?ED?UART_PUTSTR?ZF_UART
   *DEL*:           00008BH   BYTE   INSEG    CODE           ?PR?LCD_SHOWUINT16?SEEKFREE_18TFT
   *DEL*:           000082H   BYTE   INSEG    CODE           ?PR?LCD_SHOWINT32_SIMSPI?SEEKFREE_18TFT
   *DEL*:           0000DDH   BYTE   INSEG    CODE           ?PR?LCD_SHOWINT16_SIMSPI?SEEKFREE_18TFT
   *DEL*:           000082H   BYTE   INSEG    CODE           ?PR?LCD_SHOWINT32?SEEKFREE_18TFT
   *DEL*:           0000DDH   BYTE   INSEG    CODE           ?PR?LCD_SHOWINT16?SEEKFREE_18TFT
   *DEL*:           00002BH   BYTE   INSEG    CODE           ?PR?LCD_CLEAR_SIMSPI?SEEKFREE_18TFT
   *DEL*:           00002BH   BYTE   INSEG    CODE           ?PR?LCD_CLEAR?SEEKFREE_18TFT
   *DEL*:           00004EH   BYTE   INSEG    CODE           ?PR?LCD_SHOWSTR_SIMSPI?SEEKFREE_18TFT
   *DEL*:           00004EH   BYTE   INSEG    CODE           ?PR?LCD_SHOWSTR?SEEKFREE_18TFT
   *DEL*:           000029H   BYTE   INSEG    CODE           ?PR?LCD_WRITEINDEX_SIMSPI?SEEKFREE_18TFT
   *DEL*:           000029H   BYTE   INSEG    CODE           ?PR?LCD_WRITEDATA_SIMSPI?SEEKFREE_18TFT
   *DEL*:           00000AH   BYTE   INSEG    CODE           ?PR?LCD_WRITEINDEX?SEEKFREE_18TFT
   *DEL*:           00000AH   BYTE   INSEG    CODE           ?PR?LCD_WRITEDATA?SEEKFREE_18TFT
   *DEL*:           00002CH   BYTE   INSEG    CODE           ?PR?LCD_WRITEDATA_16BIT_SIMSPI?SEEKFREE_18TFT
   *DEL*:           00004CH   BYTE   INSEG    CODE           ?PR?LCD_SET_REGION_SIMSPI?SEEKFREE_18TFT
   *DEL*:           0001EFH   BYTE   INSEG    CODE           ?PR?LCD_INIT_SIMSPI?SEEKFREE_18TFT
   *DEL*:           00009AH   BYTE   INSEG    CODE           ?PR?SHOWIMAGE?SEEKFREE_18TFT
   *DEL*:           000050H   BYTE   INSEG    CODE           ?PR?LCD_SET_REGION?SEEKFREE_18TFT
   *DEL*:           0001EEH   BYTE   INSEG    CODE           ?PR?LCD_INIT?SEEKFREE_18TFT
   *DEL*:           00007BH   BYTE   INSEG    CODE           ?PR?LCD_SHOWUINT8_SIMSPI?SEEKFREE_18TFT
   *DEL*:           00007BH   BYTE   INSEG    CODE           ?PR?LCD_SHOWUINT8?SEEKFREE_18TFT
   *DEL*:           0000B9H   BYTE   INSEG    CODE           ?PR?LCD_SHOWINT8_SIMSPI?SEEKFREE_18TFT
   *DEL*:           0000B9H   BYTE   INSEG    CODE           ?PR?LCD_SHOWINT8?SEEKFREE_18TFT
   *DEL*:           00001FH   BYTE   INSEG    CODE           ?PR?LCD_WRITEDATA_16BIT?SEEKFREE_18TFT
   *DEL*:           0000F8H   BYTE   INSEG    CODE           ?PR?LCD_SHOWFLOAT_SIMSPI?SEEKFREE_18TFT
   *DEL*:           000013H   BYTE   INSEG    CODE           ?PR?LCD_DRAWPOINT_SIMSPI?SEEKFREE_18TFT
   *DEL*:           0000F8H   BYTE   INSEG    CODE           ?PR?LCD_SHOWFLOAT?SEEKFREE_18TFT
   *DEL*:           000013H   BYTE   INSEG    CODE           ?PR?LCD_DRAWPOINT?SEEKFREE_18TFT
   *DEL*:           00008EH   BYTE   INSEG    CODE           ?PR?LCD_SHOWCHAR_SIMSPI?SEEKFREE_18TFT
   *DEL*:           00008EH   BYTE   INSEG    CODE           ?PR?LCD_SHOWCHAR?SEEKFREE_18TFT
   *DEL*:           00008BH   BYTE   INSEG    CODE           ?PR?LCD_SHOWUINT16_SIMSPI?SEEKFREE_18TFT
   *DEL*:           000004H   BYTE   UNIT     EDATA          ?ED?LCD_SET_REGION_SIMSPI?SEEKFREE_18TFT
   *DEL*:           000004H   BYTE   UNIT     EDATA          ?ED?LCD_SHOWCHAR_SIMSPI?SEEKFREE_18TFT
   *DEL*:           000006H   BYTE   UNIT     EDATA          ?ED?LCD_SHOWSTR_SIMSPI?SEEKFREE_18TFT
   *DEL*:           000005H   BYTE   UNIT     EDATA          ?ED?LCD_SHOWINT8_SIMSPI?SEEKFREE_18TFT
   *DEL*:           000004H   BYTE   UNIT     EDATA          ?ED?LCD_SHOWUINT8_SIMSPI?SEEKFREE_18TFT
   *DEL*:           000008H   BYTE   UNIT     EDATA          ?ED?LCD_SHOWINT16_SIMSPI?SEEKFREE_18TFT
   *DEL*:           000006H   BYTE   UNIT     EDATA          ?ED?LCD_SHOWUINT16_SIMSPI?SEEKFREE_18TFT
   *DEL*:           000028H   BYTE   UNIT     EDATA          ?ED?LCD_SHOWINT32_SIMSPI?SEEKFREE_18TFT
   *DEL*:           00002BH   BYTE   UNIT     EDATA          ?ED?LCD_SHOWFLOAT_SIMSPI?SEEKFREE_18TFT
   *DEL*:           000002H   BYTE   UNIT     EDATA          ?ED?LCD_WRITEDATA_16BIT?SEEKFREE_18TFT
   *DEL*:           000004H   BYTE   UNIT     EDATA          ?ED?LCD_SET_REGION?SEEKFREE_18TFT
   *DEL*:           000004H   BYTE   UNIT     EDATA          ?ED?LCD_SHOWCHAR?SEEKFREE_18TFT
   *DEL*:           000006H   BYTE   UNIT     EDATA          ?ED?LCD_SHOWSTR?SEEKFREE_18TFT
   *DEL*:           000005H   BYTE   UNIT     EDATA          ?ED?LCD_SHOWINT8?SEEKFREE_18TFT
   *DEL*:           000004H   BYTE   UNIT     EDATA          ?ED?LCD_SHOWUINT8?SEEKFREE_18TFT
   *DEL*:           000008H   BYTE   UNIT     EDATA          ?ED?LCD_SHOWINT16?SEEKFREE_18TFT
   *DEL*:           000006H   BYTE   UNIT     EDATA          ?ED?LCD_SHOWUINT16?SEEKFREE_18TFT
   *DEL*:           000028H   BYTE   UNIT     EDATA          ?ED?LCD_SHOWINT32?SEEKFREE_18TFT
   *DEL*:           00002BH   BYTE   UNIT     EDATA          ?ED?LCD_SHOWFLOAT?SEEKFREE_18TFT
   *DEL*:           000008H   BYTE   UNIT     EDATA          ?ED?SHOWIMAGE?SEEKFREE_18TFT
   *DEL*:           000011H   BYTE   INSEG    CODE           ?PR?ENCODER_SELF4_CHECK?SEEKFREE_ABSOLUTE_ENCODER
   *DEL*:           000011H   BYTE   INSEG    CODE           ?PR?ENCODER_SELF5_CHECK?SEEKFREE_ABSOLUTE_ENCODER
   *DEL*:           00002FH   BYTE   INSEG    CODE           ?PR?ENCODER_SPI_R_REG_BYTE?SEEKFREE_ABSOLUTE_ENCODER
   *DEL*:           000005H   BYTE   INSEG    CODE           ?PR?ENCODER_DELAY_US?SEEKFREE_ABSOLUTE_ENCODER
   *DEL*:           000038H   BYTE   INSEG    CODE           ?PR?ENCODER_SPI_W_REG_BYTE?SEEKFREE_ABSOLUTE_ENCODER
   *DEL*:           00001CH   BYTE   INSEG    CODE           ?PR?SIMSPI_R_REG_BYTE?SEEKFREE_ABSOLUTE_ENCODER
   *DEL*:           00001AH   BYTE   INSEG    CODE           ?PR?SIMSPI_W_REG_BYTE?SEEKFREE_ABSOLUTE_ENCODER
   *DEL*:           000029H   BYTE   INSEG    CODE           ?PR?ENCODER_INIT_SPI?SEEKFREE_ABSOLUTE_ENCODER
   *DEL*:           000004H   BYTE   INSEG    CODE           ?PR?SPI_WR_BYTE?SEEKFREE_ABSOLUTE_ENCODER
   *DEL*:           000024H   BYTE   INSEG    CODE           ?PR?SET_ZERO_POSITION_SIMSPI?SEEKFREE_ABSOLUTE_ENCODER
   *DEL*:           000023H   BYTE   INSEG    CODE           ?PR?ENCODER_ANGLE_SIMSPI?SEEKFREE_ABSOLUTE_ENCODER
   *DEL*:           00001CH   BYTE   INSEG    CODE           ?PR?SPI_R_REG_BYTE?SEEKFREE_ABSOLUTE_ENCODER
L251 LINKER/LOCATER V4.66.93.0                                                        05/01/2022  09:46:42  PAGE 7


   *DEL*:           00001AH   BYTE   INSEG    CODE           ?PR?SPI_W_REG_BYTE?SEEKFREE_ABSOLUTE_ENCODER
   *DEL*:           00002FH   BYTE   INSEG    CODE           ?PR?ENCODER_SIMSPI_R_REG_BYTE?SEEKFREE_ABSOLUTE_ENCODER
   *DEL*:           000038H   BYTE   INSEG    CODE           ?PR?ENCODER_SIMSPI_W_REG_BYTE?SEEKFREE_ABSOLUTE_ENCODER
   *DEL*:           00000FH   BYTE   INSEG    CODE           ?PR?ENCODER_INIT_SIMSPI?SEEKFREE_ABSOLUTE_ENCODER
   *DEL*:           000024H   BYTE   INSEG    CODE           ?PR?SET_ZERO_POSITION_SPI?SEEKFREE_ABSOLUTE_ENCODER
   *DEL*:           00001FH   BYTE   INSEG    CODE           ?PR?SIMSPI_WR_BYTE?SEEKFREE_ABSOLUTE_ENCODER
   *DEL*:           000023H   BYTE   INSEG    CODE           ?PR?ENCODER_ANGLE_SPI?SEEKFREE_ABSOLUTE_ENCODER
   *DEL*:           000001H   BYTE   UNIT     EDATA          ?ED?ENCODER_SELF4_CHECK?SEEKFREE_ABSOLUTE_ENCODER
   *DEL*:           000001H   BYTE   UNIT     EDATA          ?ED?ENCODER_SELF5_CHECK?SEEKFREE_ABSOLUTE_ENCODER
   *DEL*:           00001FH   BYTE   INSEG    CODE           ?PR?ICM_SIMSPI_WR_BYTE?SEEKFREE_ICM20602
   *DEL*:           000075H   BYTE   INSEG    CODE           ?PR?ICM20602_INIT_SIMIIC?SEEKFREE_ICM20602
   *DEL*:           000040H   BYTE   INSEG    CODE           ?PR?ICM_SIMSPI_R_REG_BYTES?SEEKFREE_ICM20602
   *DEL*:           00001CH   BYTE   INSEG    CODE           ?PR?ICM_SIMSPI_R_REG_BYTE?SEEKFREE_ICM20602
   *DEL*:           000013H   BYTE   INSEG    CODE           ?PR?ICM_SIMSPI_W_REG_BYTE?SEEKFREE_ICM20602
   *DEL*:           000059H   BYTE   INSEG    CODE           ?PR?ICM20602_INIT_SIMSPI?SEEKFREE_ICM20602
   *DEL*:           00002BH   BYTE   INSEG    CODE           ?PR?ICM20602_SELF1_CHECK?SEEKFREE_ICM20602
   *DEL*:           000011H   BYTE   INSEG    CODE           ?PR?ICM20602_SELF4_CHECK?SEEKFREE_ICM20602
   *DEL*:           000044H   BYTE   INSEG    CODE           ?PR?GET_ICM20602_GYRO_SIMIIC?SEEKFREE_ICM20602
   *DEL*:           000044H   BYTE   INSEG    CODE           ?PR?GET_ICM20602_ACCDATA_SIMIIC?SEEKFREE_ICM20602
   *DEL*:           00003DH   BYTE   INSEG    CODE           ?PR?GET_ICM20602_GYRO_SIMSPI?SEEKFREE_ICM20602
   *DEL*:           00003DH   BYTE   INSEG    CODE           ?PR?GET_ICM20602_ACCDATA_SIMSPI?SEEKFREE_ICM20602
   *DEL*:           000006H   BYTE   UNIT     EDATA          ?ED?GET_ICM20602_ACCDATA_SIMIIC?SEEKFREE_ICM20602
   *DEL*:           000006H   BYTE   UNIT     EDATA          ?ED?GET_ICM20602_GYRO_SIMIIC?SEEKFREE_ICM20602
   *DEL*:           000003H   BYTE   UNIT     EDATA          ?ED?ICM_SIMSPI_R_REG_BYTES?SEEKFREE_ICM20602
   *DEL*:           000001H   BYTE   UNIT     EDATA          ?ED?ICM20602_SELF4_CHECK?SEEKFREE_ICM20602
   *DEL*:           000001H   BYTE   UNIT     EDATA          ?ED?ICM20602_INIT_SIMSPI?SEEKFREE_ICM20602
   *DEL*:           000006H   BYTE   UNIT     EDATA          ?ED?GET_ICM20602_ACCDATA_SIMSPI?SEEKFREE_ICM20602
   *DEL*:           000006H   BYTE   UNIT     EDATA          ?ED?GET_ICM20602_GYRO_SIMSPI?SEEKFREE_ICM20602
   *DEL*:           00000FH   BYTE   INSEG    CODE           ?PR?SIMIIC_START?SEEKFREE_IIC
   *DEL*:           000066H   BYTE   INSEG    CODE           ?PR?SIMIIC_READ_REGS?SEEKFREE_IIC
   *DEL*:           000001H   BYTE   INSEG    CODE           ?PR?SIMIIC_INIT?SEEKFREE_IIC
   *DEL*:           000034H   BYTE   INSEG    CODE           ?PR?SIMIIC_READ_REG?SEEKFREE_IIC
   *DEL*:           000011H   BYTE   INSEG    CODE           ?PR?SIMIIC_STOP?SEEKFREE_IIC
   *DEL*:           000022H   BYTE   INSEG    CODE           ?PR?SIMIIC_WRITE_REG?SEEKFREE_IIC
   *DEL*:           000020H   BYTE   INSEG    CODE           ?PR?SIMIIC_SENDACK?SEEKFREE_IIC
   *DEL*:           00003BH   BYTE   INSEG    CODE           ?PR?READ_CH?SEEKFREE_IIC
   *DEL*:           00002EH   BYTE   INSEG    CODE           ?PR?SEND_CH?SEEKFREE_IIC
   *DEL*:           00001CH   BYTE   INSEG    CODE           ?PR?SCCB_WAITACK?SEEKFREE_IIC
   *DEL*:           00000BH   BYTE   INSEG    CODE           ?PR?SIMIIC_DELAY?SEEKFREE_IIC
   *DEL*:           000005H   BYTE   UNIT     EDATA          ?ED?SIMIIC_READ_REGS?SEEKFREE_IIC
   *DEL*:           00007BH   BYTE   INSEG    CODE           ?PR?IPS114_SHOWUINT8_SIMSPI?SEEKFREE_IPS114_SPI
   *DEL*:           000077H   BYTE   INSEG    CODE           ?PR?IPS114_SHOWUINT8?SEEKFREE_IPS114_SPI
   *DEL*:           0000B9H   BYTE   INSEG    CODE           ?PR?IPS114_SHOWINT8_SIMSPI?SEEKFREE_IPS114_SPI
   *DEL*:           0000B5H   BYTE   INSEG    CODE           ?PR?IPS114_SHOWINT8?SEEKFREE_IPS114_SPI
   *DEL*:           0000F8H   BYTE   INSEG    CODE           ?PR?IPS114_SHOWFLOAT_SIMSPI?SEEKFREE_IPS114_SPI
   *DEL*:           000013H   BYTE   INSEG    CODE           ?PR?IPS114_DRAWPOINT_SIMSPI?SEEKFREE_IPS114_SPI
   *DEL*:           000013H   BYTE   INSEG    CODE           ?PR?IPS114_DRAWPOINT?SEEKFREE_IPS114_SPI
   *DEL*:           00008EH   BYTE   INSEG    CODE           ?PR?IPS114_SHOWCHAR_SIMSPI?SEEKFREE_IPS114_SPI
   *DEL*:           00008BH   BYTE   INSEG    CODE           ?PR?IPS114_SHOWUINT16_SIMSPI?SEEKFREE_IPS114_SPI
   *DEL*:           00008BH   BYTE   INSEG    CODE           ?PR?IPS114_SHOWUINT16?SEEKFREE_IPS114_SPI
   *DEL*:           000082H   BYTE   INSEG    CODE           ?PR?IPS114_SHOWINT32_SIMSPI?SEEKFREE_IPS114_SPI
   *DEL*:           0000DDH   BYTE   INSEG    CODE           ?PR?IPS114_SHOWINT16_SIMSPI?SEEKFREE_IPS114_SPI
   *DEL*:           000082H   BYTE   INSEG    CODE           ?PR?IPS114_SHOWINT32?SEEKFREE_IPS114_SPI
   *DEL*:           00003CH   BYTE   INSEG    CODE           ?PR?IPS114_CLEAR_SIMSPI?SEEKFREE_IPS114_SPI
   *DEL*:           00002CH   BYTE   INSEG    CODE           ?PR?IPS114_WRITEDATAI_16BIT_SIMSPI?SEEKFREE_IPS114_SPI
   *DEL*:           00004EH   BYTE   INSEG    CODE           ?PR?IPS114_SHOWSTR_SIMSPI?SEEKFREE_IPS114_SPI
   *DEL*:           000029H   BYTE   INSEG    CODE           ?PR?IPS114_WRITEINDEX_SIMSPI?SEEKFREE_IPS114_SPI
   *DEL*:           000029H   BYTE   INSEG    CODE           ?PR?IPS114_WRITEDATA_SIMSPI?SEEKFREE_IPS114_SPI
   *DEL*:           000044H   BYTE   INSEG    CODE           ?PR?IPS114_SET_REGION_SIMSPI?SEEKFREE_IPS114_SPI
   *DEL*:           00014FH   BYTE   INSEG    CODE           ?PR?IPS114_INIT_SIMSPI?SEEKFREE_IPS114_SPI
   *DEL*:           000004H   BYTE   UNIT     EDATA          ?ED?IPS114_SET_REGION_SIMSPI?SEEKFREE_IPS114_SPI
   *DEL*:           000002H   BYTE   UNIT     EDATA          ?ED?IPS114_CLEAR_SIMSPI?SEEKFREE_IPS114_SPI
   *DEL*:           000004H   BYTE   UNIT     EDATA          ?ED?IPS114_SHOWCHAR_SIMSPI?SEEKFREE_IPS114_SPI
   *DEL*:           000006H   BYTE   UNIT     EDATA          ?ED?IPS114_SHOWSTR_SIMSPI?SEEKFREE_IPS114_SPI
   *DEL*:           000005H   BYTE   UNIT     EDATA          ?ED?IPS114_SHOWINT8_SIMSPI?SEEKFREE_IPS114_SPI
L251 LINKER/LOCATER V4.66.93.0                                                        05/01/2022  09:46:42  PAGE 8


   *DEL*:           000004H   BYTE   UNIT     EDATA          ?ED?IPS114_SHOWUINT8_SIMSPI?SEEKFREE_IPS114_SPI
   *DEL*:           000008H   BYTE   UNIT     EDATA          ?ED?IPS114_SHOWINT16_SIMSPI?SEEKFREE_IPS114_SPI
   *DEL*:           000006H   BYTE   UNIT     EDATA          ?ED?IPS114_SHOWUINT16_SIMSPI?SEEKFREE_IPS114_SPI
   *DEL*:           000028H   BYTE   UNIT     EDATA          ?ED?IPS114_SHOWINT32_SIMSPI?SEEKFREE_IPS114_SPI
   *DEL*:           00002BH   BYTE   UNIT     EDATA          ?ED?IPS114_SHOWFLOAT_SIMSPI?SEEKFREE_IPS114_SPI
   *DEL*:           000005H   BYTE   UNIT     EDATA          ?ED?IPS114_SHOWINT8?SEEKFREE_IPS114_SPI
   *DEL*:           000004H   BYTE   UNIT     EDATA          ?ED?IPS114_SHOWUINT8?SEEKFREE_IPS114_SPI
   *DEL*:           000006H   BYTE   UNIT     EDATA          ?ED?IPS114_SHOWUINT16?SEEKFREE_IPS114_SPI
   *DEL*:           000028H   BYTE   UNIT     EDATA          ?ED?IPS114_SHOWINT32?SEEKFREE_IPS114_SPI
   *DEL*:           000055H   BYTE   INSEG    CODE           ?PR?MPU6050_INIT?SEEKFREE_MPU6050
   *DEL*:           00002CH   BYTE   INSEG    CODE           ?PR?MPU6050_SELF1_CHECK?SEEKFREE_MPU6050
   *DEL*:           000044H   BYTE   INSEG    CODE           ?PR?MPU6050_GET_GYRO?SEEKFREE_MPU6050
   *DEL*:           000044H   BYTE   INSEG    CODE           ?PR?MPU6050_GET_ACCDATA?SEEKFREE_MPU6050
   *DEL*:           000006H   BYTE   UNIT     EDATA          ?ED?MPU6050_GET_ACCDATA?SEEKFREE_MPU6050
   *DEL*:           000006H   BYTE   UNIT     EDATA          ?ED?MPU6050_GET_GYRO?SEEKFREE_MPU6050
   *DEL*:           000033H   BYTE   INSEG    CODE           ?PR?OLED_PUTPIXEL?SEEKFREE_OLED
   *DEL*:           000032H   BYTE   INSEG    CODE           ?PR?OLED_HEXASCII_SPI?SEEKFREE_OLED
   *DEL*:           000023H   BYTE   INSEG    CODE           ?PR?OLED_SET_POS?SEEKFREE_OLED
   *DEL*:           000325H   BYTE   INSEG    CODE           ?PR?OLED_DIS_BMP_SPI?SEEKFREE_OLED
   *DEL*:           0000F8H   BYTE   INSEG    CODE           ?PR?OLED_PRINTF_FLOAT?SEEKFREE_OLED
   *DEL*:           0000E8H   BYTE   INSEG    CODE           ?PR?OLED_P8X16STR_SPI?SEEKFREE_OLED
   *DEL*:           00002AH   BYTE   INSEG    CODE           ?PR?OLED_CLRPIXEL_SPI?SEEKFREE_OLED
   *DEL*:           000029H   BYTE   INSEG    CODE           ?PR?OLED_WRCMD?SEEKFREE_OLED
   *DEL*:           000090H   BYTE   INSEG    CODE           ?PR?OLED_PRINT_CHINESE_SPI?SEEKFREE_OLED
   *DEL*:           000029H   BYTE   INSEG    CODE           ?PR?OLED_WRDAT?SEEKFREE_OLED
   *DEL*:           000033H   BYTE   INSEG    CODE           ?PR?OLED_FILL?SEEKFREE_OLED
   *DEL*:           000082H   BYTE   INSEG    CODE           ?PR?OLED_PRINTF_INT32?SEEKFREE_OLED
   *DEL*:           00001DH   BYTE   INSEG    CODE           ?PR?OLED_UINT16?SEEKFREE_OLED
   *DEL*:           000031H   BYTE   INSEG    CODE           ?PR?OLED_PUTPIXEL_SPI?SEEKFREE_OLED
   *DEL*:           000021H   BYTE   INSEG    CODE           ?PR?OLED_SET_POS_SPI?SEEKFREE_OLED
   *DEL*:           0000A9H   BYTE   INSEG    CODE           ?PR?OLED_P6X8STR?SEEKFREE_OLED
   *DEL*:           00004BH   BYTE   INSEG    CODE           ?PR?OLED_INT16?SEEKFREE_OLED
   *DEL*:           0000A3H   BYTE   INSEG    CODE           ?PR?OLED_INIT?SEEKFREE_OLED
   *DEL*:           0000F8H   BYTE   INSEG    CODE           ?PR?OLED_PRINTF_FLOAT_SPI?SEEKFREE_OLED
   *DEL*:           00000AH   BYTE   INSEG    CODE           ?PR?OLED_WRCMD_SPI?SEEKFREE_OLED
   *DEL*:           00000AH   BYTE   INSEG    CODE           ?PR?OLED_WRDAT_SPI?SEEKFREE_OLED
   *DEL*:           000032H   BYTE   INSEG    CODE           ?PR?OLED_HEXASCII?SEEKFREE_OLED
   *DEL*:           000033H   BYTE   INSEG    CODE           ?PR?OLED_FILL_SPI?SEEKFREE_OLED
   *DEL*:           000082H   BYTE   INSEG    CODE           ?PR?OLED_PRINTF_INT32_SPI?SEEKFREE_OLED
   *DEL*:           00001DH   BYTE   INSEG    CODE           ?PR?OLED_UINT16_SPI?SEEKFREE_OLED
   *DEL*:           0000A9H   BYTE   INSEG    CODE           ?PR?OLED_P6X8STR_SPI?SEEKFREE_OLED
   *DEL*:           00004BH   BYTE   INSEG    CODE           ?PR?OLED_INT16_SPI?SEEKFREE_OLED
   *DEL*:           00033BH   BYTE   INSEG    CODE           ?PR?OLED_DIS_BMP?SEEKFREE_OLED
   *DEL*:           0000BFH   BYTE   INSEG    CODE           ?PR?OLED_INIT_SPI?SEEKFREE_OLED
   *DEL*:           0000E8H   BYTE   INSEG    CODE           ?PR?OLED_P8X16STR?SEEKFREE_OLED
   *DEL*:           00002CH   BYTE   INSEG    CODE           ?PR?OLED_CLRPIXEL?SEEKFREE_OLED
   *DEL*:           000090H   BYTE   INSEG    CODE           ?PR?OLED_PRINT_CHINESE?SEEKFREE_OLED
   *DEL*:           000005H   BYTE   UNIT     EDATA          ?ED?OLED_P6X8STR?SEEKFREE_OLED
   *DEL*:           000005H   BYTE   UNIT     EDATA          ?ED?OLED_P8X16STR?SEEKFREE_OLED
   *DEL*:           000007H   BYTE   UNIT     EDATA          ?ED?OLED_UINT16?SEEKFREE_OLED
   *DEL*:           000007H   BYTE   UNIT     EDATA          ?ED?OLED_INT16?SEEKFREE_OLED
   *DEL*:           000028H   BYTE   UNIT     EDATA          ?ED?OLED_PRINTF_INT32?SEEKFREE_OLED
   *DEL*:           00002BH   BYTE   UNIT     EDATA          ?ED?OLED_PRINTF_FLOAT?SEEKFREE_OLED
   *DEL*:           00000CH   BYTE   UNIT     EDATA          ?ED?OLED_DIS_BMP?SEEKFREE_OLED
   *DEL*:           00000AH   BYTE   UNIT     EDATA          ?ED?OLED_PRINT_CHINESE?SEEKFREE_OLED
   *DEL*:           000005H   BYTE   UNIT     EDATA          ?ED?OLED_P6X8STR_SPI?SEEKFREE_OLED
   *DEL*:           000005H   BYTE   UNIT     EDATA          ?ED?OLED_P8X16STR_SPI?SEEKFREE_OLED
   *DEL*:           000007H   BYTE   UNIT     EDATA          ?ED?OLED_UINT16_SPI?SEEKFREE_OLED
   *DEL*:           000007H   BYTE   UNIT     EDATA          ?ED?OLED_INT16_SPI?SEEKFREE_OLED
   *DEL*:           000028H   BYTE   UNIT     EDATA          ?ED?OLED_PRINTF_INT32_SPI?SEEKFREE_OLED
   *DEL*:           00002BH   BYTE   UNIT     EDATA          ?ED?OLED_PRINTF_FLOAT_SPI?SEEKFREE_OLED
   *DEL*:           00000CH   BYTE   UNIT     EDATA          ?ED?OLED_DIS_BMP_SPI?SEEKFREE_OLED
   *DEL*:           00000AH   BYTE   UNIT     EDATA          ?ED?OLED_PRINT_CHINESE_SPI?SEEKFREE_OLED
   *DEL*:           000070H   BYTE   INSEG    CODE           ?PR?CCD_SEND_DATA?SEEKFREE_TSL1401
   *DEL*:           000003H   BYTE   UNIT     EDATA          ?ED?CCD_SEND_DATA?SEEKFREE_TSL1401
L251 LINKER/LOCATER V4.66.93.0                                                        05/01/2022  09:46:42  PAGE 9


   *DEL*:           00003AH   BYTE   INSEG    CODE           ?PR?CRC_CHECK?SEEKFREE_VIRSCO
   *DEL*:           000069H   BYTE   INSEG    CODE           ?PR?DATA_CONVERSION?SEEKFREE_VIRSCO
   *DEL*:           000004H   BYTE   UNIT     EDATA          ?ED?DATA_CONVERSION?SEEKFREE_VIRSCO
   *DEL*:           00005DH   BYTE   INSEG    CODE           ?PR?SEEKFREE_WIRELESS_SEND_BUFF?SEEKFREE_WIRELESS
   *DEL*:           000027H   BYTE   INSEG    CODE           ?PR?SEEKFREE_WIRELESS_INIT?SEEKFREE_WIRELESS
   *DEL*:           000002H   BYTE   UNIT     EDATA          ?ED?SEEKFREE_WIRELESS_SEND_BUFF?SEEKFREE_WIRELESS
   *DEL*:           00005EH   BYTE   INSEG    CODE           ?PR?AT24C02_READ_BYTES?SEEKFREE_AT24C02
   *DEL*:           000017H   BYTE   INSEG    CODE           ?PR?AT24C02_READ_BYTE?SEEKFREE_AT24C02
   *DEL*:           00005BH   BYTE   INSEG    CODE           ?PR?AT24C02_WRITE_BYTES?SEEKFREE_AT24C02
   *DEL*:           000019H   BYTE   INSEG    CODE           ?PR?AT24C02_WRITE_BYTE?SEEKFREE_AT24C02
   *DEL*:           000002H   BYTE   UNIT     EDATA          ?ED?AT24C02_WRITE_BYTES?SEEKFREE_AT24C02
   *DEL*:           000002H   BYTE   UNIT     EDATA          ?ED?AT24C02_READ_BYTES?SEEKFREE_AT24C02
   *DEL*:           000119H   BYTE   INSEG    CODE           ?PR?FIFO_READ_BUFFER?SEEKFREE_BLUETOOTH_CH9141
   *DEL*:           000025H   BYTE   INSEG    CODE           ?PR?FIFO_CLEAR?SEEKFREE_BLUETOOTH_CH9141
   *DEL*:           000046H   BYTE   INSEG    CODE           ?PR?FIFO_END_OFFSET?SEEKFREE_BLUETOOTH_CH9141
   *DEL*:           000015H   BYTE   INSEG    CODE           ?PR?FIFO_USED?SEEKFREE_BLUETOOTH_CH9141
   *DEL*:           000043H   BYTE   INSEG    CODE           ?PR?FIFO_INIT?SEEKFREE_BLUETOOTH_CH9141
   *DEL*:           000022H   BYTE   INSEG    CODE           ?PR?BLUETOOTH_CH9141_READ_BUFF?SEEKFREE_BLUETOOTH_CH9141
   *DEL*:           0000ABH   BYTE   INSEG    CODE           ?PR?BLUETOOTH_CH9141_SEND_BUFF?SEEKFREE_BLUETOOTH_CH9141
   *DEL*:           00003CH   BYTE   INSEG    CODE           ?PR?BLUETOOTH_CH9141_INIT?SEEKFREE_BLUETOOTH_CH9141
   *DEL*:           000004H   BYTE   UNIT     EDATA          ?ED?FIFO_INIT?SEEKFREE_BLUETOOTH_CH9141
   *DEL*:           00000FH   BYTE   UNIT     EDATA          ?ED?FIFO_READ_BUFFER?SEEKFREE_BLUETOOTH_CH9141
   *DEL*:           000006H   BYTE   UNIT     EDATA          ?ED?BLUETOOTH_CH9141_SEND_BUFF?SEEKFREE_BLUETOOTH_CH9141
   *DEL*:           000004H   BYTE   UNIT     EDATA          ?ED?BLUETOOTH_CH9141_READ_BUFF?SEEKFREE_BLUETOOTH_CH9141
   *DEL*:           000058H   BYTE   INSEG    CODE           ?PR?ADC?ADC
   *DEL*:           0001F0H   BYTE   INSEG    CODE           ?PR?GET_ADC?ADC
   *DEL*:           000024H   BYTE   INSEG    CODE           ?PR?DC_INIT?ADC
   *DEL*:           00003AH   BYTE   UNIT     EDATA          ?ED?GET_ADC?ADC
   *DEL*:           000015H   BYTE   INSEG    CODE           ?PR?MENU?DISPLAY
   *DEL*:           00007FH   BYTE   INSEG    CODE           ?PR?MENU0?DISPLAY
   *DEL*:           000095H   BYTE   INSEG    CODE           ?PR?MENU1?DISPLAY
   *DEL*:           000144H   BYTE   INSEG    CODE           ?PR?MENU2?DISPLAY
   *DEL*:           0000BDH   BYTE   INSEG    CODE           ?PR?MENU3?DISPLAY
   *DEL*:           0000F0H   BYTE   INSEG    CODE           ?PR?MENU4?DISPLAY
   *DEL*:           000091H   BYTE   INSEG    CODE           ?PR?MENU5?DISPLAY
   *DEL*:           0000A2H   BYTE   INSEG    CODE           ?PR?PID_INCREASE?PID
   *DEL*:           00000CH   BYTE   UNIT     EDATA          ?ED?PID_INCREASE?PID
   *DEL*:           00007DH   BYTE   INSEG    CODE           ?PR?WX_KEY?KEY
   *DEL*:           000013H   BYTE   INSEG    CODE           ?PR?VCAN?UP
   *DEL*:           000103H   BYTE   INSEG    CODE           ?PR?NIMING?UP
   *DEL*:           000029H   BYTE   INSEG    CODE           ?PR?UART2_PUTBUFF?UP
   *DEL*:           000054H   BYTE   INSEG    CODE           ?PR?VCAN_SENDWARE?UP
   *DEL*:           000036H   BYTE   INSEG    CODE           ?PR?CCD_UP?UP
   *DEL*:           000002H   BYTE   UNIT     EDATA          ?ED?UART2_PUTBUFF?UP
   *DEL*:           000008H   BYTE   UNIT     EDATA          ?ED?VCAN_SENDWARE?UP
   *DEL*:           00000AH   BYTE   UNIT     EDATA          ?ED?NIMING?UP
   *DEL*:           000001H   BYTE   INSEG    CODE           ?PR?CIRQUE?ELEMENT
   *DEL*:           000168H   BYTE   INSEG    CODE           ?PR?JUDGE?ELEMENT
   *DEL*:           00018DH   BYTE   INSEG    CODE           ?PR?CCD_SC?ELEMENT
   *DEL*:           000057H   BYTE   INSEG    CODE           ?PR?SIDEWAY?ELEMENT
   *DEL*:           000058H   BYTE   INSEG    CODE           ?PR?CCD_CBH?CCD
   *DEL*:           0000A1H   BYTE   INSEG    CODE           ?PR?AUTO_THRESHOLD?CCD
   *DEL*:           000029H   BYTE   INSEG    CODE           ?PR?CCD_AVERAGE?CCD
   *DEL*:           000001H   BYTE   UNIT     EDATA          ?ED?CCD_CBH?CCD
   *DEL*:           000001H   BYTE   UNIT     EDATA          ?ED?AUTO_THRESHOLD?CCD
   *DEL*:           000010H   BYTE   INSEG    CODE           ?PR?ABS?_?ABS



OVERLAY MAP OF MODULE:   .\Out_File\SEEKFREE (board)


FUNCTION/MODULE                               EDATA_GROUP
--> CALLED FUNCTION/MODULE                    START  STOP
=========================================================
L251 LINKER/LOCATER V4.66.93.0                                                        05/01/2022  09:46:42  PAGE 10


UART1_Isr/isr                                 ----- -----

*** NEW ROOT ********************************

UART2_Isr/isr                                 ----- -----

*** NEW ROOT ********************************

UART3_Isr/isr                                 ----- -----

*** NEW ROOT ********************************

UART4_Isr/isr                                 ----- -----
  +--> wireless_uart_callback/SEEKFREE_WIRELESS
  +--> bluetooth_ch9141_uart_callback/SEEKFREE_BLUETOOTH_CH9141

wireless_uart_callback/SEEKFREE_WIRELESS      ----- -----

bluetooth_ch9141_uart_callback/SEEKFREE_+     ----- -----
... BLUETOOTH_CH9141
  +--> fifo_write_buffer/SEEKFREE_BLUETOOTH_CH9141

fifo_write_buffer/SEEKFREE_BLUETOOTH_CH9+     13B2H 13BDH
... 141
  +--> DisableGlobalIRQ/board
  +--> memcpy?_/memcpy
  +--> fifo_head_offset/SEEKFREE_BLUETOOTH_CH9141

DisableGlobalIRQ/board                        ----- -----

memcpy?_/memcpy                               ----- -----

fifo_head_offset/SEEKFREE_BLUETOOTH_CH91+     ----- -----
... 41

*** NEW ROOT ********************************

INT0_Isr/isr                                  ----- -----

*** NEW ROOT ********************************

INT1_Isr/isr                                  ----- -----

*** NEW ROOT ********************************

INT2_Isr/isr                                  ----- -----

*** NEW ROOT ********************************

INT3_Isr/isr                                  ----- -----

*** NEW ROOT ********************************

INT4_Isr/isr                                  ----- -----

*** NEW ROOT ********************************

TM0_Isr/isr                                   ----- -----

*** NEW ROOT ********************************

TM1_Isr/isr                                   ----- -----

*** NEW ROOT ********************************

L251 LINKER/LOCATER V4.66.93.0                                                        05/01/2022  09:46:42  PAGE 11


TM2_Isr/isr                                   ----- -----

*** NEW ROOT ********************************

TM3_Isr/isr                                   ----- -----

*** NEW ROOT ********************************

TM4_Isr/isr                                   ----- -----
  +--> encoder_get/encoder
  +--> ccd_sz/element
  +--> steer_output/steer
  +--> ccd_collect/SEEKFREE_TSL1401
  +--> ccd_collect2/SEEKFREE_TSL1401
  +--> ccd_filter/ccd
  +--> ccd_filter2/ccd
  +--> ccd_Steer_Control/steer
  +--> ccd_xj/ccd
  +--> PWM_Output/motor
  +--> PWM_Control/motor

encoder_get/encoder                           ----- -----
  +--> ctimer_count_read/zf_tim
  +--> ctimer_count_clean/zf_tim
  +--> FCASTI/DFPMU_SP
  +--> FPMUL/DFPMU_SP
  +--> FPADD/DFPMU_SP
  +--> CASTF/DFPMU_SP

ctimer_count_read/zf_tim                      ----- -----

ctimer_count_clean/zf_tim                     ----- -----

FCASTI/DFPMU_SP                               ----- -----

FPMUL/DFPMU_SP                                ----- -----

FPADD/DFPMU_SP                                ----- -----

CASTF/DFPMU_SP                                ----- -----

ccd_sz/element                                ----- -----

steer_output/steer                            ----- -----
  +--> pwm_duty/zf_pwm

pwm_duty/zf_pwm                               ----- -----
  +--> FCASTL/DFPMU_SP
  +--> FPDIV/DFPMU_SP
  +--> FPMUL/DFPMU_SP
  +--> CASTF/DFPMU_SP

FCASTL/DFPMU_SP                               ----- -----

FPDIV/DFPMU_SP                                ----- -----

ccd_collect/SEEKFREE_TSL1401                  ----- -----
  +--> adc_once/zf_adc

adc_once/zf_adc                               ----- -----

ccd_collect2/SEEKFREE_TSL1401                 ----- -----
  +--> adc_once/zf_adc

ccd_filter/ccd                                ----- -----
L251 LINKER/LOCATER V4.66.93.0                                                        05/01/2022  09:46:42  PAGE 12



ccd_filter2/ccd                               ----- -----

ccd_Steer_Control/steer                       ----- -----
  +--> PID_Realize/pid

PID_Realize/pid                               13BEH 13CDH
  +--> FCASTL/DFPMU_SP
  +--> FPMUL/DFPMU_SP
  +--> FPADD/DFPMU_SP
  +--> FPCMP/DFPMU_SP
  +--> FCHS/DFPMU_SP
  +--> FPSUB/DFPMU_SP
  +--> CASTF/DFPMU_SP

FPCMP/DFPMU_SP                                ----- -----

FCHS/DFPMU_SP                                 ----- -----

FPSUB/DFPMU_SP                                ----- -----

ccd_xj/ccd                                    ----- -----
  +--> FCASTI/DFPMU_SP
  +--> FPDIV/DFPMU_SP
  +--> FPMUL/DFPMU_SP
  +--> FPCMP/DFPMU_SP
  +--> CASTF/DFPMU_SP

PWM_Output/motor                              ----- -----
  +--> pwm_duty/zf_pwm

PWM_Control/motor                             ----- -----
  +--> CASTF/DFPMU_SP
  +--> PID_LIncrease/pid
  +--> PID_RIncrease/pid

PID_LIncrease/pid                             13BEH 13C9H
  +--> FCASTL/DFPMU_SP
  +--> FPSUB/DFPMU_SP
  +--> FPMUL/DFPMU_SP
  +--> FPADD/DFPMU_SP
  +--> CASTF/DFPMU_SP

PID_RIncrease/pid                             13BEH 13C9H
  +--> FCASTL/DFPMU_SP
  +--> FPSUB/DFPMU_SP
  +--> FPMUL/DFPMU_SP
  +--> FPADD/DFPMU_SP
  +--> CASTF/DFPMU_SP

*** NEW ROOT ********************************

?C_C51STARTUP                                 ----- -----

*** NEW ROOT ********************************

?C_C51STARTUP?3                               ----- -----
  +--> main/main

main/main                                     ----- -----
  +--> DisableGlobalIRQ/board
  +--> board_init/board
  +--> init/init
  +--> EnableGlobalIRQ/board
  +--> display/display
L251 LINKER/LOCATER V4.66.93.0                                                        05/01/2022  09:46:42  PAGE 13



board_init/board                              ----- -----
  +--> set_clk/board
  +--> delay_init/zf_delay
  +--> uart_init/zf_uart

set_clk/board                                 ----- -----

delay_init/zf_delay                           ----- -----
  +--> ?C?SLDIV/?C?SLDIV

?C?SLDIV/?C?SLDIV                             ----- -----
  +--> ?C?ULIDIV/?C?ULDIV

?C?ULIDIV/?C?ULDIV                            ----- -----

uart_init/zf_uart                             13CEH 13D3H
  +--> ?C?ULIDIV/?C?ULDIV

init/init                                     ----- -----
  +--> pit_timer_ms/zf_tim
  +--> motor_init/motor
  +--> menu_init/display
  +--> encoder_init/encoder
  +--> steer_init/steer
  +--> ccd_init/SEEKFREE_TSL1401

pit_timer_ms/zf_tim                           ----- -----
  +--> ?C?SLDIV/?C?SLDIV

motor_init/motor                              ----- -----
  +--> pwm_init/zf_pwm

pwm_init/zf_pwm                               13CEH 13D5H
  +--> pwm_set_gpio/zf_pwm
  +--> ?C?ULIDIV/?C?ULDIV
  +--> FCASTL/DFPMU_SP
  +--> FPDIV/DFPMU_SP
  +--> FPMUL/DFPMU_SP
  +--> CASTF/DFPMU_SP

pwm_set_gpio/zf_pwm                           ----- -----
  +--> gpio_mode/zf_gpio

gpio_mode/zf_gpio                             ----- -----

menu_init/display                             ----- -----
  +--> ips114_init/SEEKFREE_IPS114_SPI
  +--> ips114_clear/SEEKFREE_IPS114_SPI

ips114_init/SEEKFREE_IPS114_SPI               ----- -----
  +--> spi_init/zf_spi
  +--> delay_ms/zf_delay
  +--> ips114_writeIndex/SEEKFREE_IPS114_SPI
  +--> ips114_writeData/SEEKFREE_IPS114_SPI
  +--> ips114_clear/SEEKFREE_IPS114_SPI

spi_init/zf_spi                               13CEH 13D1H
  +--> gpio_mode/zf_gpio

delay_ms/zf_delay                             ----- -----

ips114_writeIndex/SEEKFREE_IPS114_SPI         ----- -----
  +--> spi_mosi/zf_spi

L251 LINKER/LOCATER V4.66.93.0                                                        05/01/2022  09:46:42  PAGE 14


spi_mosi/zf_spi                               ----- -----

ips114_writeData/SEEKFREE_IPS114_SPI          ----- -----
  +--> spi_mosi/zf_spi

ips114_clear/SEEKFREE_IPS114_SPI              13CEH 13CFH
  +--> ips114_set_region/SEEKFREE_IPS114_SPI
  +--> ips114_writedata_16bit/SEEKFREE_IPS114_SPI

ips114_set_region/SEEKFREE_IPS114_SPI         1403H 1406H
  +--> ips114_writeIndex/SEEKFREE_IPS114_SPI
  +--> ips114_writedata_16bit/SEEKFREE_IPS114_SPI

ips114_writedata_16bit/SEEKFREE_IPS114_S+     1407H 1408H
... PI
  +--> spi_mosi/zf_spi

encoder_init/encoder                          ----- -----
  +--> ctimer_count_init/zf_tim

ctimer_count_init/zf_tim                      ----- -----

steer_init/steer                              ----- -----
  +--> pwm_init/zf_pwm

ccd_init/SEEKFREE_TSL1401                     ----- -----
  +--> adc_init/zf_adc
  +--> pit_timer_ms/zf_tim

adc_init/zf_adc                               ----- -----

EnableGlobalIRQ/board                         ----- -----

display/display                               ----- -----
  +--> ips114_showfloat/SEEKFREE_IPS114_SPI
  +--> ips114_showint16/SEEKFREE_IPS114_SPI

ips114_showfloat/SEEKFREE_IPS114_SPI          13CEH 13F8H
  +--> FPCMP/DFPMU_SP
  +--> zf_sprintf/SEEKFREE_PRINTF
  +--> ips114_showstr/SEEKFREE_IPS114_SPI

zf_sprintf/SEEKFREE_PRINTF                    13F9H 1457H
  +--> number_conversion_ascii/SEEKFREE_PRINTF
  +--> printf_reverse_order/SEEKFREE_PRINTF
  +--> memcpy?_/memcpy
  +--> CASTF/DFPMU_SP
  +--> FPCMP/DFPMU_SP
  +--> FCASTL/DFPMU_SP
  +--> FPSUB/DFPMU_SP
  +--> FPMUL/DFPMU_SP

number_conversion_ascii/SEEKFREE_PRINTF       1458H 1458H
  +--> ?C?SLDIV/?C?SLDIV
  +--> ?C?ULIDIV/?C?ULDIV

printf_reverse_order/SEEKFREE_PRINTF          ----- -----

ips114_showstr/SEEKFREE_IPS114_SPI            13F9H 13FEH
  +--> ips114_showchar/SEEKFREE_IPS114_SPI

ips114_showchar/SEEKFREE_IPS114_SPI           13FFH 1402H
  +--> ips114_set_region/SEEKFREE_IPS114_SPI
  +--> ips114_writedata_16bit/SEEKFREE_IPS114_SPI

L251 LINKER/LOCATER V4.66.93.0                                                        05/01/2022  09:46:42  PAGE 15


ips114_showint16/SEEKFREE_IPS114_SPI          13CEH 13D5H
  +--> ips114_showchar/SEEKFREE_IPS114_SPI

*** NEW ROOT ********************************

?C_C51STARTUP?2                               ----- -----



PUBLIC SYMBOLS OF MODULE:  .\Out_File\SEEKFREE (board)


      VALUE       CLASS    TYPE      PUBLIC SYMBOL NAME
      =================================================
      00FF007DH   CODE     ---       ?C?CASTF
      000000FFH   NUMBER   ---       ?C?CODESEG
*DEL*:00000000H   CODE     ---       ?C?FCASTC
      00FF3BEBH   CODE     ---       ?C?FCASTI
      00FF003FH   CODE     ---       ?C?FCASTL
      00FF0006H   CODE     ---       ?C?FPADD
      00FF0046H   CODE     ---       ?C?FPCMP3
      00FF001EH   CODE     ---       ?C?FPDIV
      00FF0016H   CODE     ---       ?C?FPMUL
      00FF3BE4H   CODE     ---       ?C?FPNEG
      00FF000EH   CODE     ---       ?C?FPSUB
      00FF38B6H   CODE     ---       ?C?INITEDATA
      00FF3D73H   HCONST   WORD      ?C?INITEDATA_END
      00FF2B4DH   CODE     ---       ?C?LIMUL
      00FF2B3CH   CODE     ---       ?C?LMUL
      00FF2B0AH   CODE     ---       ?C?SIDIV
      00FF2BA9H   CODE     NEAR LAB  ?C?SLDIV
      00FF0000H   CODE     ---       ?C?STARTUP
      00FF2B58H   CODE     NEAR LAB  ?C?ULDIV
      00FF2B56H   CODE     NEAR LAB  ?C?ULIDIV
      00000001H   NUMBER   ---       ?C?XDATASEG
      00FF0000H   CODE     ---       ?C_STARTUP
*DEL*:1FFFFFF8H   EDATA    ---       ?data_conversion?BYTE
*DEL*:1FFFFFF8H   EDATA    ---       ?fifo_init?BYTE
*DEL*:1FFFFFFCH   EDATA    ---       ?fifo_read_buffer?BYTE
      000013AEH   EDATA    ---       ?fifo_write_buffer?BYTE
*DEL*:1FFFFFFAH   EDATA    ---       ?iic_init?BYTE
      000013CAH   EDATA    BYTE      ?ips114_showfloat?BYTE
*DEL*:1FFFFFFCH   EDATA    BYTE      ?ips114_showfloat_simspi?BYTE
*DEL*:1FFFFFFCH   EDATA    BYTE      ?lcd_showfloat?BYTE
*DEL*:1FFFFFFCH   EDATA    BYTE      ?lcd_showfloat_simspi?BYTE
*DEL*:00000000H   EDATA    BYTE      ?NiMing?BYTE
      0000144FH   EDATA    ---       ?number_conversion_ascii?BYTE
*DEL*:1FFFFFFCH   EDATA    ---       ?oled_printf_float?BYTE
*DEL*:1FFFFFFCH   EDATA    ---       ?oled_printf_float_spi?BYTE
*DEL*:1FFFFFF8H   EDATA    BYTE      ?PID_Increase?BYTE
      000013B6H   EDATA    BYTE      ?PID_LIncrease?BYTE
      000013B6H   EDATA    BYTE      ?PID_Realize?BYTE
      000013B6H   EDATA    BYTE      ?PID_RIncrease?BYTE
*DEL*:1FFFFFFAH   EDATA    ---       ?pwm_freq?BYTE
      000013CCH   EDATA    ---       ?pwm_init?BYTE
      000013C5H   EDATA    ---       ?spi_init?BYTE
      000013C8H   EDATA    ---       ?uart_init?BYTE
      00001421H   EDATA    ---       ?zf_sprintf?BYTE
      0000162DH   EDATA    INT       a
*DEL*:00000000H   CODE     ---       abs?_
*SFR* 000000E0H   DATA     BYTE      ACC
      00000127H   EDATA    WORD      AD_Average
      000015DBH   EDATA    FLOAT     ad_value1
      000015DFH   EDATA    FLOAT     ad_value2
      000015E3H   EDATA    FLOAT     ad_value3
L251 LINKER/LOCATER V4.66.93.0                                                        05/01/2022  09:46:42  PAGE 16


      000015E7H   EDATA    FLOAT     ad_value4
*DEL*:00000000H   CODE     ---       ADC
*SFR* 000000DCH   DATA     BYTE      ADC_CONTR
      00FF35E3H   CODE     ---       adc_init
      00FF3A6CH   CODE     ---       adc_once
*SFR* 000000DDH   DATA     BYTE      ADC_RES
*SFR* 000000DEH   DATA     BYTE      ADC_RESL
*SFR* 000000DFH   DATA     BYTE      ADCCFG
      00000637H   EDATA    INT       all_black1
      00000639H   EDATA    INT       all_black2
      000008C7H   EDATA    INT       all_white1
      000008C9H   EDATA    INT       all_white2
*DEL*:00000000H   CODE     ---       at24c02_read_byte
*DEL*:00000000H   CODE     ---       at24c02_read_bytes
*DEL*:00000000H   CODE     ---       at24c02_write_byte
*DEL*:00000000H   CODE     ---       at24c02_write_bytes
      000014BCH   EDATA    BYTE      at_mode
      000014D1H   EDATA    BYTE      at_mode_cmd_flag
      0000149EH   EDATA    ---       at_mode_data
      0000145AH   EDATA    BYTE      at_mode_num
*DEL*:00000000H   CODE     ---       ATAN?_
      0000010CH   EDATA    BYTE      Auto
*DEL*:00000000H   CODE     ---       Auto_Threshold
*SFR* 000000DAH   DATA     BYTE      AUXINTIF
*SFR* 00000093H   DATA     BYTE      AUXR
      0000162FH   EDATA    INT       b
      00000008H   EDATA    INT       black
      000008CDH   EDATA    FLOAT     black_cbh11
      000008D5H   EDATA    FLOAT     black_cbh12
      000008D1H   EDATA    FLOAT     black_cbh21
      000008DBH   EDATA    FLOAT     black_cbh22
      000010E1H   EDATA    INT       black_flag
*DEL*:00000000H   CODE     ---       bluetooth_ch9141_init
*DEL*:00000000H   CODE     ---       bluetooth_ch9141_read_buff
      00001459H   EDATA    BYTE      bluetooth_ch9141_rx_buffer
*DEL*:00000000H   CODE     ---       bluetooth_ch9141_send_buff
      00FF0026H   CODE     ---       bluetooth_ch9141_uart_callback
      00FF345EH   CODE     ---       board_init
      00000123H   EDATA    INT       Broad_width1
      00000125H   EDATA    INT       Broad_width2
      000013ADH   EDATA    ---       busy
      00001631H   EDATA    INT       c
      000015B1H   EDATA    INT       cbh
      0000063BH   EDATA    WORD      cbh_Average
*DEL*:00000000H   CODE     ---       CCD_Average
*DEL*:00000000H   CODE     ---       Ccd_cbh
      00000113H   EDATA    FLOAT     ccd_cbh11
      0000011BH   EDATA    FLOAT     ccd_cbh12
      00000117H   EDATA    FLOAT     ccd_cbh21
      0000011FH   EDATA    FLOAT     ccd_cbh22
      00FF3A07H   CODE     ---       ccd_collect
      00FF39D2H   CODE     ---       ccd_collect2
      000010E4H   EDATA    ---       ccd_data
      000011E5H   EDATA    ---       ccd_data2
      00FF2F70H   CODE     ---       ccd_filter
      00FF301BH   CODE     ---       ccd_filter2
      00FF3AE4H   CODE     ---       ccd_init
*DEL*:00000000H   CODE     ---       ccd_sc
*DEL*:00000000H   CODE     ---       ccd_send_data
      00FF2BDDH   CODE     ---       ccd_Steer_Control
      000007C3H   EDATA    ---       ccd_sum
      0000000AH   EDATA    ---       ccd_sum2
      00FF329DH   CODE     ---       ccd_sz
*DEL*:00000000H   CODE     ---       ccd_up
      00000233H   EDATA    ---       ccd_valu
L251 LINKER/LOCATER V4.66.93.0                                                        05/01/2022  09:46:42  PAGE 17


      000008E1H   EDATA    ---       ccd_valu1
      00000CE1H   EDATA    ---       ccd_valu2
      00000129H   EDATA    ---       ccd_value
      00000641H   EDATA    ---       ccd_value2
      00FF13A8H   CODE     ---       ccd_xj
*DEL*:00000000H   CODE     ---       cirque
      00001671H   EDATA    INT       cirque_flag
*DEL*:00000000H   CODE     ---       COS?_
*DEL*:00000000H   CODE     ---       CRC_CHECK
      00FF369FH   CODE     ---       ctimer_count_clean
      00FF378BH   CODE     ---       ctimer_count_init
      00FF373EH   CODE     ---       ctimer_count_read
      00001633H   EDATA    INT       d
      00001673H   EDATA    INT       d_cnt
      0000162BH   EDATA    INT       dat
      000015F6H   EDATA    ---       dat_left
      000015ECH   EDATA    ---       dat_right
*DEL*:00000000H   CODE     ---       data_conversion
      000014E3H   EDATA    ---       Data_to_Send
*DEL*:00000000H   CODE     ---       dc_init
      00FF3999H   CODE     ---       delay_init
      00FF0066H   CODE     ---       delay_ms
*DEL*:00000000H   CODE     ---       delay_us
      00000635H   EDATA    INT       df
      00FF005EH   CODE     ---       DisableGlobalIRQ
      00FF286EH   CODE     ---       display
*SFR* 0000008FH   DATA     BYTE      DMAIR
*SFR* 00000083H   DATA     BYTE      DPH
*SFR* 00000082H   DATA     BYTE      DPL
      00001614H   EDATA    BYTE      e
      000015EBH   EDATA    BYTE      e_val
*SFR* 000000A8H.7 DATA     BIT       EA
      00001600H   EDATA    ---       en_datl
      0000160AH   EDATA    ---       en_datr
      00001619H   EDATA    FLOAT     en_suml
      0000161DH   EDATA    FLOAT     en_sumr
      00FF0056H   CODE     ---       EnableGlobalIRQ
*DEL*:00000000H   CODE     ---       encoder_angle_simspi
*DEL*:00000000H   CODE     ---       encoder_angle_spi
*DEL*:00000000H   CODE     ---       encoder_delay_us
      00FF2171H   CODE     ---       encoder_get
      00FF3B92H   CODE     ---       encoder_init
*DEL*:00000000H   CODE     ---       encoder_init_simspi
*DEL*:00000000H   CODE     ---       encoder_init_spi
      00001617H   EDATA    INT       encoder_left
      00001615H   EDATA    INT       encoder_right
*DEL*:00000000H   CODE     ---       encoder_self4_check
*DEL*:00000000H   CODE     ---       encoder_self5_check
*DEL*:00000000H   CODE     ---       encoder_simspi_r_reg_byte
*DEL*:00000000H   CODE     ---       encoder_simspi_w_reg_byte
*DEL*:00000000H   CODE     ---       encoder_spi_r_reg_byte
*DEL*:00000000H   CODE     ---       encoder_spi_w_reg_byte
*SFR* 000000A8H.4 DATA     BIT       ES
*SFR* 000000A8H.1 DATA     BIT       ET0
*SFR* 000000A8H.3 DATA     BIT       ET1
*SFR* 000000A8H.0 DATA     BIT       EX0
*SFR* 000000A8H.2 DATA     BIT       EX1
*DEL*:00000000H   CODE     ---       exit_init
*DEL*:00000000H   CODE     ---       FABS?_
*DEL*:00000000H   CODE     ---       FCLEX
*DEL*:00000000H   CODE     ---       fifo_clear
*DEL*:00000000H   CODE     ---       fifo_end_offset
      00FF3861H   CODE     ---       fifo_head_offset
*DEL*:00000000H   CODE     ---       fifo_init
*DEL*:00000000H   CODE     ---       fifo_read_buffer
L251 LINKER/LOCATER V4.66.93.0                                                        05/01/2022  09:46:42  PAGE 18


*DEL*:00000000H   CODE     ---       fifo_used
      00FF2784H   CODE     ---       fifo_write_buffer
*DEL*:00000000H   CODE     ---       FINIT
      00001675H   EDATA    INT       flag_0
*DEL*:00000000H   CODE     ---       FPCRR
*DEL*:00000000H   CODE     ---       FPCRW
*DEL*:00000000H   CODE     ---       FPSRR
*DEL*:00000000H   CODE     ---       FPSRW
*DEL*:00000000H   CODE     ---       FXAM
      000015A5H   EDATA    ---       g_ValueOfAD
*DEL*:00000000H   CODE     ---       Get_ADC
*DEL*:00000000H   CODE     ---       get_clk
*DEL*:00000000H   CODE     ---       get_icm20602_accdata_simiic
*DEL*:00000000H   CODE     ---       get_icm20602_accdata_simspi
*DEL*:00000000H   CODE     ---       get_icm20602_gyro_simiic
*DEL*:00000000H   CODE     ---       get_icm20602_gyro_simspi
      00FF17F5H   CODE     ---       gpio_mode
*DEL*:00000000H   CODE     ---       gpio_pull_set
      00001635H   EDATA    INT       i
*SFR* 000000C7H   DATA     BYTE      IAP_CONTR
*DEL*:00000000H   CODE     ---       icm20602_init_simiic
*DEL*:00000000H   CODE     ---       icm20602_init_simspi
*DEL*:00000000H   CODE     ---       icm20602_self1_check
*DEL*:00000000H   CODE     ---       icm20602_self4_check
      0000167FH   EDATA    INT       icm_acc_x
      00001681H   EDATA    INT       icm_acc_y
      00001683H   EDATA    INT       icm_acc_z
      00001685H   EDATA    INT       icm_gyro_x
      00001687H   EDATA    INT       icm_gyro_y
      00001689H   EDATA    INT       icm_gyro_z
*DEL*:00000000H   CODE     ---       icm_simspi_r_reg_byte
*DEL*:00000000H   CODE     ---       icm_simspi_r_reg_bytes
*DEL*:00000000H   CODE     ---       icm_simspi_w_reg_byte
*DEL*:00000000H   CODE     ---       icm_simspi_wr_byte
*SFR* 000000A8H   DATA     BYTE      IE
*SFR* 000000E7H   DATA     BYTE      IE2
      000016A1H   EDATA    BYTE      IIC_ad_main
      000016A3H   EDATA    BYTE      IIC_ad_sub
      000016A4H   EDATA    ---       IIC_buf
*DEL*:00000000H   CODE     ---       iic_change_pin
*DEL*:00000000H   CODE     ---       iic_delay_us
*DEL*:00000000H   CODE     ---       iic_init
      000016A2H   EDATA    BYTE      IIC_num
*DEL*:00000000H   CODE     ---       iic_read_reg
*DEL*:00000000H   CODE     ---       iic_read_reg_bytes
*DEL*:00000000H   CODE     ---       iic_write_reg
      00000743H   EDATA    ---       ImageDiff
      00001561H   EDATA    FLOAT     Increase_LastData
      00001569H   EDATA    FLOAT     Increase_LastError
      00001581H   EDATA    FLOAT     Increase_LLastData
      0000154DH   EDATA    FLOAT     Increase_LLastError
      00001555H   EDATA    FLOAT     Increase_LPrevError
      0000155DH   EDATA    FLOAT     Increase_LSumError
      0000156DH   EDATA    FLOAT     Increase_PrevError
      00001585H   EDATA    FLOAT     Increase_RLastData
      00001551H   EDATA    FLOAT     Increase_RLastError
      00001559H   EDATA    FLOAT     Increase_RPrevError
      00001565H   EDATA    FLOAT     Increase_RSumError
      00001575H   EDATA    FLOAT     Increase_SumError
      00FF3A3CH   CODE     ---       init
      00FF000AH   CODE     ---       INT0_Isr
      00FF0012H   CODE     ---       INT1_Isr
      00FF3BBCH   CODE     ---       INT2_Isr
      00FF3BC4H   CODE     ---       INT3_Isr
      00FF3BCCH   CODE     ---       INT4_Isr
L251 LINKER/LOCATER V4.66.93.0                                                        05/01/2022  09:46:42  PAGE 19


*SFR* 00000095H   DATA     BYTE      INTCLKO
      00001621H   EDATA    INT       io_input_state1
      00001623H   EDATA    INT       io_input_state2
      00001625H   EDATA    INT       io_input_state3
      00001627H   EDATA    INT       io_input_state4
      00001629H   EDATA    INT       io_input_state5
*SFR* 000000B8H   DATA     BYTE      IP
*SFR* 000000FEH   DATA     BYTE      IP2
*SFR* 000000B6H   DATA     BYTE      IP2H
*SFR* 000000B7H   DATA     BYTE      IPH
      00FF395DH   CODE     ---       ips114_clear
*DEL*:00000000H   CODE     ---       ips114_clear_simspi
*DEL*:00000000H   CODE     ---       ips114_drawpoint
*DEL*:00000000H   CODE     ---       ips114_drawpoint_simspi
      00FF251FH   CODE     ---       ips114_init
*DEL*:00000000H   CODE     ---       ips114_init_simspi
      00FF37D5H   CODE     ---       ips114_set_region
*DEL*:00000000H   CODE     ---       ips114_set_region_simspi
      00FF34EEH   CODE     ---       ips114_showchar
*DEL*:00000000H   CODE     ---       ips114_showchar_simspi
      00FF268CH   CODE     ---       ips114_showfloat
*DEL*:00000000H   CODE     ---       ips114_showfloat_simspi
      00FF2A31H   CODE     ---       ips114_showint16
*DEL*:00000000H   CODE     ---       ips114_showint16_simspi
*DEL*:00000000H   CODE     ---       ips114_showint32
*DEL*:00000000H   CODE     ---       ips114_showint32_simspi
*DEL*:00000000H   CODE     ---       ips114_showint8
*DEL*:00000000H   CODE     ---       ips114_showint8_simspi
      00FF36F0H   CODE     ---       ips114_showstr
*DEL*:00000000H   CODE     ---       ips114_showstr_simspi
*DEL*:00000000H   CODE     ---       ips114_showuint16
*DEL*:00000000H   CODE     ---       ips114_showuint16_simspi
*DEL*:00000000H   CODE     ---       ips114_showuint8
*DEL*:00000000H   CODE     ---       ips114_showuint8_simspi
      00FF3BA8H   CODE     ---       ips114_writeData
      00FF3B05H   CODE     ---       ips114_writedata_16bit
*DEL*:00000000H   CODE     ---       ips114_writeData_simspi
*DEL*:00000000H   CODE     ---       ips114_writeDatai_16bit_simspi
      00FF3B9EH   CODE     ---       ips114_writeIndex
*DEL*:00000000H   CODE     ---       ips114_writeIndex_simspi
*SFR* 000000A9H   DATA     BYTE      IRCBAND
*SFR* 0000009FH   DATA     BYTE      IRTRIM
*SFR* 00000088H.0 DATA     BIT       IT0
*SFR* 00000088H.2 DATA     BIT       IT1
*DEL*:00000000H   CODE     ---       judge
      0000010AH   EDATA    INT       Lboundary_black
      00000633H   EDATA    INT       Lboundary_black2
      0000022BH   EDATA    INT       Lboundary_data
      000008C3H   EDATA    INT       Lboundary_data2
*DEL*:00000000H   CODE     ---       lcd_clear
*DEL*:00000000H   CODE     ---       lcd_clear_simspi
*DEL*:00000000H   CODE     ---       lcd_drawpoint
*DEL*:00000000H   CODE     ---       lcd_drawpoint_simspi
*DEL*:00000000H   CODE     ---       lcd_init
*DEL*:00000000H   CODE     ---       lcd_init_simspi
*DEL*:00000000H   CODE     ---       lcd_set_region
*DEL*:00000000H   CODE     ---       lcd_set_region_simspi
*DEL*:00000000H   CODE     ---       lcd_showchar
*DEL*:00000000H   CODE     ---       lcd_showchar_simspi
*DEL*:00000000H   CODE     ---       lcd_showfloat
*DEL*:00000000H   CODE     ---       lcd_showfloat_simspi
*DEL*:00000000H   CODE     ---       lcd_showint16
*DEL*:00000000H   CODE     ---       lcd_showint16_simspi
*DEL*:00000000H   CODE     ---       lcd_showint32
*DEL*:00000000H   CODE     ---       lcd_showint32_simspi
L251 LINKER/LOCATER V4.66.93.0                                                        05/01/2022  09:46:42  PAGE 20


*DEL*:00000000H   CODE     ---       lcd_showint8
*DEL*:00000000H   CODE     ---       lcd_showint8_simspi
*DEL*:00000000H   CODE     ---       lcd_showstr
*DEL*:00000000H   CODE     ---       lcd_showstr_simspi
*DEL*:00000000H   CODE     ---       lcd_showuint16
*DEL*:00000000H   CODE     ---       lcd_showuint16_simspi
*DEL*:00000000H   CODE     ---       lcd_showuint8
*DEL*:00000000H   CODE     ---       lcd_showuint8_simspi
*DEL*:00000000H   CODE     ---       lcd_writeData
*DEL*:00000000H   CODE     ---       lcd_writedata_16bit
*DEL*:00000000H   CODE     ---       lcd_writeData_16bit_simspi
*DEL*:00000000H   CODE     ---       lcd_writeData_simspi
*DEL*:00000000H   CODE     ---       lcd_writeIndex
*DEL*:00000000H   CODE     ---       lcd_writeIndex_simspi
      00001649H   EDATA    WORD      Left_Duty
*SFR* 0000009EH   DATA     BYTE      LIRTRIM
      00001637H   EDATA    INT       m
      000014D2H   EDATA    ---       mac_address
      00FF3B73H   CODE     ---       main
      00FF3ABFH   CODE     ---       memcpy?_
*DEL*:00000000H   CODE     ---       menu
*DEL*:00000000H   CODE     ---       menu0
*DEL*:00000000H   CODE     ---       menu1
*DEL*:00000000H   CODE     ---       menu2
*DEL*:00000000H   CODE     ---       menu3
*DEL*:00000000H   CODE     ---       menu4
*DEL*:00000000H   CODE     ---       menu5
      00FF3BB2H   CODE     ---       menu_init
      00000231H   EDATA    INT       mid
      0000166FH   EDATA    INT       Mid_Value
      00FF381DH   CODE     ---       motor_init
*DEL*:00000000H   CODE     ---       mpu6050_get_accdata
*DEL*:00000000H   CODE     ---       mpu6050_get_gyro
*DEL*:00000000H   CODE     ---       mpu6050_init
*DEL*:00000000H   CODE     ---       mpu6050_self1_check
      0000168BH   EDATA    INT       mpu_acc_x
      0000168DH   EDATA    INT       mpu_acc_y
      0000168FH   EDATA    INT       mpu_acc_z
      00001691H   EDATA    INT       mpu_gyro_x
      00001693H   EDATA    INT       mpu_gyro_y
      00001695H   EDATA    INT       mpu_gyro_z
      00001639H   EDATA    INT       n
*DEL*:00000000H   CODE     ---       NiMing
      0000164DH   EDATA    WORD      Now_speed
      00FF33CCH   CODE     ---       number_conversion_ascii
*DEL*:00000000H   CODE     ---       NVIC_SetPriority
      00FF0C86H   CODE     ---       oled_6x8
      00FF00A6H   CODE     ---       oled_8x16
*DEL*:00000000H   CODE     ---       oled_clrpixel
*DEL*:00000000H   CODE     ---       oled_clrpixel_spi
*DEL*:00000000H   CODE     ---       oled_dis_bmp
*DEL*:00000000H   CODE     ---       oled_dis_bmp_spi
*DEL*:00000000H   CODE     ---       oled_fill
*DEL*:00000000H   CODE     ---       oled_fill_spi
*DEL*:00000000H   CODE     ---       oled_hexascii
*DEL*:00000000H   CODE     ---       oled_hexascii_spi
*DEL*:00000000H   CODE     ---       oled_init
*DEL*:00000000H   CODE     ---       oled_init_spi
*DEL*:00000000H   CODE     ---       oled_int16
*DEL*:00000000H   CODE     ---       oled_int16_spi
*DEL*:00000000H   CODE     ---       oled_p6x8str
*DEL*:00000000H   CODE     ---       oled_p6x8str_spi
*DEL*:00000000H   CODE     ---       oled_p8x16str
*DEL*:00000000H   CODE     ---       oled_p8x16str_spi
*DEL*:00000000H   CODE     ---       oled_print_chinese
L251 LINKER/LOCATER V4.66.93.0                                                        05/01/2022  09:46:42  PAGE 21


*DEL*:00000000H   CODE     ---       oled_print_chinese_spi
*DEL*:00000000H   CODE     ---       oled_printf_float
*DEL*:00000000H   CODE     ---       oled_printf_float_spi
*DEL*:00000000H   CODE     ---       oled_printf_int32
*DEL*:00000000H   CODE     ---       oled_printf_int32_spi
*DEL*:00000000H   CODE     ---       oled_putpixel
*DEL*:00000000H   CODE     ---       oled_putpixel_spi
*DEL*:00000000H   CODE     ---       oled_set_pos
*DEL*:00000000H   CODE     ---       oled_set_pos_spi
*DEL*:00000000H   CODE     ---       oled_uint16
*DEL*:00000000H   CODE     ---       oled_uint16_spi
*DEL*:00000000H   CODE     ---       oled_wrcmd
*DEL*:00000000H   CODE     ---       oled_wrcmd_spi
*DEL*:00000000H   CODE     ---       oled_wrdat
*DEL*:00000000H   CODE     ---       oled_wrdat_spi
      0000010DH   EDATA    INT       outblack_cbh1
      0000010FH   EDATA    INT       outblack_cbh2
      000008D9H   EDATA    INT       Outside_black1
      000008DFH   EDATA    INT       Outside_black2
      0000163BH   EDATA    INT       p
*SFR* 00000080H   DATA     BYTE      P0
*SFR* 00000080H.7 DATA     BIT       P07
*SFR* 000000F2H   DATA     BYTE      P0M0
*SFR* 000000F1H   DATA     BYTE      P0M1
*SFR* 00000090H   DATA     BYTE      P1
*SFR* 000000F4H   DATA     BYTE      P1M0
*SFR* 000000F3H   DATA     BYTE      P1M1
*SFR* 000000A0H   DATA     BYTE      P2
*SFR* 000000A0H.0 DATA     BIT       P20
*SFR* 000000A0H.1 DATA     BIT       P21
*SFR* 000000A0H.2 DATA     BIT       P22
*SFR* 000000A0H.3 DATA     BIT       P23
*SFR* 000000A0H.4 DATA     BIT       P24
*SFR* 000000A0H.5 DATA     BIT       P25
*SFR* 000000A0H.6 DATA     BIT       P26
*SFR* 000000A0H.7 DATA     BIT       P27
*SFR* 000000F6H   DATA     BYTE      P2M0
*SFR* 000000F5H   DATA     BYTE      P2M1
*SFR* 000000B0H   DATA     BYTE      P3
*SFR* 000000B0H.5 DATA     BIT       P35
*SFR* 000000B0H.6 DATA     BIT       P36
*SFR* 000000B0H.7 DATA     BIT       P37
*SFR* 000000FAH   DATA     BYTE      P3M0
*SFR* 000000F9H   DATA     BYTE      P3M1
*SFR* 000000C0H   DATA     BYTE      P4
*SFR* 000000C0H.0 DATA     BIT       P40
*SFR* 000000C0H.1 DATA     BIT       P41
*SFR* 000000C0H.2 DATA     BIT       P42
*SFR* 000000C0H.3 DATA     BIT       P43
*SFR* 000000C0H.5 DATA     BIT       P45
*SFR* 000000FCH   DATA     BYTE      P4M0
*SFR* 000000FBH   DATA     BYTE      P4M1
*SFR* 000000C8H   DATA     BYTE      P5
*SFR* 000000C8H.0 DATA     BIT       P50
*SFR* 000000C8H.1 DATA     BIT       P51
*SFR* 000000EDH   DATA     BYTE      P5M0
*SFR* 000000ECH   DATA     BYTE      P5M1
*SFR* 000000E8H   DATA     BYTE      P6
*SFR* 000000EFH   DATA     BYTE      P6M0
*SFR* 000000EEH   DATA     BYTE      P6M1
*SFR* 000000F8H   DATA     BYTE      P7
*SFR* 000000F8H.0 DATA     BIT       P70
*SFR* 000000F8H.1 DATA     BIT       P71
*SFR* 000000F8H.7 DATA     BIT       P77
*SFR* 000000D3H   DATA     BYTE      P7M0
L251 LINKER/LOCATER V4.66.93.0                                                        05/01/2022  09:46:42  PAGE 22


*SFR* 000000D2H   DATA     BYTE      P7M1
*SFR* 0000009AH   DATA     BYTE      P_SW1
*SFR* 0000009BH   DATA     BYTE      P_SW2
*DEL*:00000000H   CODE     ---       PID_Increase
      00FF30C6H   CODE     ---       PID_LIncrease
      00FF3202H   CODE     ---       PID_Realize
      00FF3164H   CODE     ---       PID_RIncrease
      00FF3338H   CODE     ---       pit_timer_ms
      00FF38E2H   CODE     ---       printf_reverse_order
*SFR* 000000D0H   DATA     BYTE      PSW
*DEL*:00000000H   CODE     ---       putchar
      000016B2H   EDATA    INT       pwm
      00FF3E27H   HCONST   ---       PWM_ARR_ADDR
      00FF3E2FH   HCONST   ---       PWM_CCER_ADDR
      00FF3E3FH   HCONST   ---       PWM_CCMR_ADDR
      00FF3E07H   HCONST   ---       PWM_CCR_ADDR
      00FF2E1AH   CODE     ---       PWM_Control
      00FF2D62H   CODE     ---       pwm_duty
*DEL*:00000000H   CODE     ---       pwm_freq
      00FF1BECH   CODE     ---       pwm_init
      0000164BH   EDATA    WORD      PWM_LeftOut
      00001645H   EDATA    WORD      PWM_Out
      00FF2EC5H   CODE     ---       PWM_Output
      00001647H   EDATA    WORD      PWM_RightOut
      00FF1ED0H   CODE     ---       pwm_set_gpio
      00000111H   EDATA    INT       Rboundary_black
      0000063DH   EDATA    INT       Rboundary_black2
      0000022FH   EDATA    INT       Rboundary_data
      000008C5H   EDATA    INT       Rboundary_data2
*DEL*:00000000H   CODE     ---       read_ch
      00001571H   EDATA    FLOAT     Realize_LastData
      00001579H   EDATA    FLOAT     Realize_LastError
      0000157DH   EDATA    FLOAT     Realize_PrevError
      00001589H   EDATA    FLOAT     Realize_SumError
*DEL*:00000000H   CODE     ---       recv_ack
*DEL*:00000000H   CODE     ---       recv_data
      00001643H   EDATA    WORD      Right_Duty
      0000063FH   EDATA    INT       road_width1
      00000741H   EDATA    INT       road_width2
*SFR* 000000FFH   DATA     BYTE      RSTCFG
*SFR* 000000E4H   DATA     BYTE      S2BUF
*SFR* 000000E3H   DATA     BYTE      S2CON
*SFR* 000000E6H   DATA     BYTE      S3BUF
*SFR* 000000E5H   DATA     BYTE      S3CON
*SFR* 000000BDH   DATA     BYTE      S4BUF
*SFR* 000000BCH   DATA     BYTE      S4CON
*SFR* 00000099H   DATA     BYTE      SBUF
      00001679H   EDATA    INT       sc_flag
*SFR* 00000098H   DATA     BYTE      SCON
*DEL*:00000000H   CODE     ---       seekfree_wireless_init
*DEL*:00000000H   CODE     ---       seekfree_wireless_send_buff
*DEL*:00000000H   CODE     ---       send_ack
*DEL*:00000000H   CODE     ---       send_ch
*DEL*:00000000H   CODE     ---       send_data
*DEL*:00000000H   CODE     ---       send_nak
      00FF2CA8H   CODE     ---       set_clk
*DEL*:00000000H   CODE     ---       set_zero_position_simspi
*DEL*:00000000H   CODE     ---       set_zero_position_spi
*DEL*:00000000H   CODE     ---       showimage
      00001677H   EDATA    INT       side_cnt
*DEL*:00000000H   CODE     ---       sideway
      0000167DH   EDATA    INT       sideway_flag
*DEL*:00000000H   CODE     ---       simiic_delay
*DEL*:00000000H   CODE     ---       simiic_init
*DEL*:00000000H   CODE     ---       simiic_read_reg
L251 LINKER/LOCATER V4.66.93.0                                                        05/01/2022  09:46:42  PAGE 23


*DEL*:00000000H   CODE     ---       simiic_read_regs
*DEL*:00000000H   CODE     ---       simiic_sendack
*DEL*:00000000H   CODE     ---       simiic_start
*DEL*:00000000H   CODE     ---       simiic_stop
*DEL*:00000000H   CODE     ---       simiic_write_reg
*DEL*:00000000H   CODE     ---       simspi_r_reg_byte
*DEL*:00000000H   CODE     ---       simspi_w_reg_byte
*DEL*:00000000H   CODE     ---       simspi_wr_byte
*DEL*:00000000H   CODE     ---       SIN?_
*SFR* 000000BAH   DATA     BYTE      SPCTL
*SFR* 000000BBH   DATA     BYTE      SPDAT
      00001653H   EDATA    FLOAT     Speed_KD
      00001657H   EDATA    FLOAT     Speed_KI
      0000165BH   EDATA    FLOAT     Speed_KP
*DEL*:00000000H   CODE     ---       spi_change_mode
*DEL*:00000000H   CODE     ---       spi_change_pin
      00FF2952H   CODE     ---       spi_init
      00FF3B84H   CODE     ---       spi_mosi
*DEL*:00000000H   CODE     ---       spi_r_reg_byte
*DEL*:00000000H   CODE     ---       spi_w_reg_byte
*DEL*:00000000H   CODE     ---       spi_wr_byte
*SFR* 000000B9H   DATA     BYTE      SPSTAT
*DEL*:00000000H   CODE     ---       SQRT?_
*DEL*:00000000H   CODE     ---       start
      00FF3B60H   CODE     ---       steer_init
      00001663H   EDATA    FLOAT     steer_KD
      00001667H   EDATA    FLOAT     steer_KP
      0000166BH   EDATA    FLOAT     steer_KT
      00FF3A9AH   CODE     ---       steer_output
      0000165FH   EDATA    INT       Steer_PWMoutput
*DEL*:00000000H   CODE     ---       stop
      0000022DH   EDATA    WORD      Sum
      000016A8H   EDATA    LONG      sys_clk
      0000167BH   EDATA    INT       sz_flag
*SFR* 000000CDH   DATA     BYTE      T2H
*SFR* 000000CEH   DATA     BYTE      T2L
*SFR* 000000CBH   DATA     BYTE      T3H
*SFR* 000000CCH   DATA     BYTE      T3L
*SFR* 000000C9H   DATA     BYTE      T4H
*SFR* 000000CAH   DATA     BYTE      T4L
*SFR* 000000DBH   DATA     BYTE      T4T3M
*DEL*:00000000H   CODE     ---       TAN?_
      00001661H   EDATA    INT       Target_direction
      0000164FH   EDATA    FLOAT     Target_Speed
*SFR* 00000088H   DATA     BYTE      TCON
      00FF0696H   CODE     ---       tft_ascii
*SFR* 0000008CH   DATA     BYTE      TH0
*SFR* 0000008DH   DATA     BYTE      TH1
      00000229H   EDATA    INT       Threshold
*SFR* 0000008AH   DATA     BYTE      TL0
*SFR* 0000008BH   DATA     BYTE      TL1
      00FF001AH   CODE     ---       TM0_Isr
      00FF0022H   CODE     ---       TM1_Isr
      00FF3BD4H   CODE     ---       TM2_Isr
      00FF3BDCH   CODE     ---       TM3_Isr
      00FF357CH   CODE     ---       TM4_Isr
*SFR* 00000089H   DATA     BYTE      TMOD
*SFR* 00000088H.4 DATA     BIT       TR0
*SFR* 00000088H.6 DATA     BIT       TR1
      000008CBH   EDATA    INT       ts_hold
      000010E3H   EDATA    BYTE      tsl1401_finish_flag
      000011E4H   EDATA    BYTE      tsl1401_finish_flag2
      00FF3920H   CODE     ---       UART1_Isr
      000012E5H   EDATA    ---       uart1_rx_buff
      00001349H   EDATA    ---       uart1_tx_buff
L251 LINKER/LOCATER V4.66.93.0                                                        05/01/2022  09:46:42  PAGE 24


      00FF3B24H   CODE     ---       UART2_Isr
*DEL*:00000000H   CODE     ---       uart2_putbuff
      00FF3B42H   CODE     ---       UART3_Isr
      00FF3641H   CODE     ---       UART4_Isr
      0000149CH   EDATA    BYTE      uart_data
      0000149BH   EDATA    BYTE      uart_flag
      00FF2360H   CODE     ---       uart_init
*DEL*:00000000H   CODE     ---       uart_putbuff
*DEL*:00000000H   CODE     ---       uart_putchar
*DEL*:00000000H   CODE     ---       uart_putstr
      000015C3H   EDATA    ---       v
      000015BBH   EDATA    ---       var_guiyihua_max
      000015B3H   EDATA    ---       var_guiyihua_min
*DEL*:00000000H   CODE     ---       VCAN
*DEL*:00000000H   CODE     ---       vcan_sendware
      00001697H   EDATA    ---       virtual_scope_data
*DEL*:00000000H   CODE     ---       wait
      00001547H   EDATA    ---       warebuf
      000016B0H   EDATA    INT       wireless_type
      00FF0086H   CODE     ---       wireless_uart_callback
*SFR* 00000092H   DATA     BYTE      WTST
*DEL*:00000000H   CODE     ---       wx_key
      0000163DH   EDATA    INT       x
      0000163FH   EDATA    INT       y
      00001641H   EDATA    INT       z
      000016ACH   EDATA    WORD      zf_delay_ms
      000016AEH   EDATA    WORD      zf_delay_us
      00FF0EAEH   CODE     ---       zf_sprintf



SYMBOL TABLE OF MODULE:  .\Out_File\SEEKFREE (board)

      VALUE       REP       CLASS    TYPE      SYMBOL NAME
      ====================================================
      ---         MODULE    ---      ---       board
      00FF0056H   PUBLIC    CODE     ---       EnableGlobalIRQ
      00FF345EH   PUBLIC    CODE     ---       board_init
      00FF2CA8H   PUBLIC    CODE     ---       set_clk
      00FF005EH   PUBLIC    CODE     ---       DisableGlobalIRQ
      000016A8H   PUBLIC    EDATA    LONG      sys_clk
      000000F2H   SFRSYM    DATA     BYTE      P0M0
      000000D0H   SFRSYM    DATA     BYTE      PSW
      000000A9H   SFRSYM    DATA     BYTE      IRCBAND
      000000BCH   SFRSYM    DATA     BYTE      S4CON
      000000E5H   SFRSYM    DATA     BYTE      S3CON
      000000E3H   SFRSYM    DATA     BYTE      S2CON
      0000009FH   SFRSYM    DATA     BYTE      IRTRIM
      00000092H   SFRSYM    DATA     BYTE      WTST
      000000FFH   SFRSYM    DATA     BYTE      RSTCFG
      00000093H   SFRSYM    DATA     BYTE      AUXR
      000000E7H   SFRSYM    DATA     BYTE      IE2
      00000088H   SFRSYM    DATA     BYTE      TCON
      00000089H   SFRSYM    DATA     BYTE      TMOD
      00000098H   SFRSYM    DATA     BYTE      SCON
      0000009EH   SFRSYM    DATA     BYTE      LIRTRIM
      000000DFH   SFRSYM    DATA     BYTE      ADCCFG
      000000B8H   SFRSYM    DATA     BYTE      IP
      000000A8H   SFRSYM    DATA     BYTE      IE
      0000009BH   SFRSYM    DATA     BYTE      P_SW2
      0000009AH   SFRSYM    DATA     BYTE      P_SW1
      000000F8H   SFRSYM    DATA     BYTE      P7
      000000A8H.7 SFRSYM    DATA     BIT       EA
      000000D2H   SFRSYM    DATA     BYTE      P7M1
      000000E8H   SFRSYM    DATA     BYTE      P6
L251 LINKER/LOCATER V4.66.93.0                                                        05/01/2022  09:46:42  PAGE 25


      000000C8H   SFRSYM    DATA     BYTE      P5
      000000D3H   SFRSYM    DATA     BYTE      P7M0
      000000EEH   SFRSYM    DATA     BYTE      P6M1
      000000C0H   SFRSYM    DATA     BYTE      P4
      000000ECH   SFRSYM    DATA     BYTE      P5M1
      000000EFH   SFRSYM    DATA     BYTE      P6M0
      000000B0H   SFRSYM    DATA     BYTE      P3
      000000EDH   SFRSYM    DATA     BYTE      P5M0
      000000FBH   SFRSYM    DATA     BYTE      P4M1
      000000A0H   SFRSYM    DATA     BYTE      P2
      000000F9H   SFRSYM    DATA     BYTE      P3M1
      000000FCH   SFRSYM    DATA     BYTE      P4M0
      00000090H   SFRSYM    DATA     BYTE      P1
      000000F5H   SFRSYM    DATA     BYTE      P2M1
      000000FAH   SFRSYM    DATA     BYTE      P3M0
      00000080H   SFRSYM    DATA     BYTE      P0
      000000F3H   SFRSYM    DATA     BYTE      P1M1
      000000F6H   SFRSYM    DATA     BYTE      P2M0
      000000F1H   SFRSYM    DATA     BYTE      P0M1
      000000F4H   SFRSYM    DATA     BYTE      P1M0

      00FF2CA8H   BLOCK     CODE     ---       LVL=0
      DR8         REGSYM    ---      DWORD     clk
      00FF2CA8H   LINE      CODE     ---       #36
      00FF2CAAH   LINE      CODE     ---       #38
      00FF2CB6H   LINE      CODE     ---       #40
      00FF2CB9H   LINE      CODE     ---       #41
      00FF2CBCH   LINE      CODE     ---       #42
      00FF2CBFH   LINE      CODE     ---       #43
      00FF2CBFH   LINE      CODE     ---       #44
      00FF2CC2H   LINE      CODE     ---       #45
      00FF2CCEH   LINE      CODE     ---       #47
      00FF2CD1H   LINE      CODE     ---       #48
      00FF2CD4H   LINE      CODE     ---       #49
      00FF2CD7H   LINE      CODE     ---       #50
      00FF2CD7H   LINE      CODE     ---       #51
      00FF2CD9H   LINE      CODE     ---       #52
      00FF2CE5H   LINE      CODE     ---       #54
      00FF2CE8H   LINE      CODE     ---       #55
      00FF2CEBH   LINE      CODE     ---       #56
      00FF2CEEH   LINE      CODE     ---       #57
      00FF2CEEH   LINE      CODE     ---       #58
      00FF2CF0H   LINE      CODE     ---       #59
      00FF2CFCH   LINE      CODE     ---       #61
      00FF2CFFH   LINE      CODE     ---       #62
      00FF2D02H   LINE      CODE     ---       #63
      00FF2D05H   LINE      CODE     ---       #64
      00FF2D05H   LINE      CODE     ---       #65
      00FF2D07H   LINE      CODE     ---       #66
      00FF2D13H   LINE      CODE     ---       #68
      00FF2D16H   LINE      CODE     ---       #69
      00FF2D19H   LINE      CODE     ---       #70
      00FF2D1CH   LINE      CODE     ---       #71
      00FF2D1CH   LINE      CODE     ---       #72
      00FF2D1EH   LINE      CODE     ---       #73
      00FF2D2AH   LINE      CODE     ---       #75
      00FF2D2DH   LINE      CODE     ---       #76
      00FF2D30H   LINE      CODE     ---       #77
      00FF2D33H   LINE      CODE     ---       #78
      00FF2D33H   LINE      CODE     ---       #79
      00FF2D35H   LINE      CODE     ---       #80
      00FF2D41H   LINE      CODE     ---       #82
      00FF2D44H   LINE      CODE     ---       #83
      00FF2D47H   LINE      CODE     ---       #84
      00FF2D4AH   LINE      CODE     ---       #85
L251 LINKER/LOCATER V4.66.93.0                                                        05/01/2022  09:46:42  PAGE 26


      00FF2D4AH   LINE      CODE     ---       #86
      00FF2D4CH   LINE      CODE     ---       #117
      00FF2D4FH   LINE      CODE     ---       #118
      00FF2D52H   LINE      CODE     ---       #119
      00FF2D55H   LINE      CODE     ---       #120
      00FF2D61H   LINE      CODE     ---       #121
      00FF2D61H   LINE      CODE     ---       #122
      ---         BLOCKEND  ---      ---       LVL=0
      DR28        REGSYM    ---      DWORD     temp_count

      00FF345EH   BLOCK     CODE     ---       LVL=0
      00FF345EH   LINE      CODE     ---       #177
      00FF345EH   LINE      CODE     ---       #179
      00FF3461H   LINE      CODE     ---       #183
      00FF346DH   LINE      CODE     ---       #184
      00FF3470H   LINE      CODE     ---       #197
      00FF3473H   LINE      CODE     ---       #199
      00FF3476H   LINE      CODE     ---       #200
      00FF3479H   LINE      CODE     ---       #201
      00FF3485H   LINE      CODE     ---       #203
      00FF3488H   LINE      CODE     ---       #204
      00FF348BH   LINE      CODE     ---       #205
      00FF348EH   LINE      CODE     ---       #206
      00FF3491H   LINE      CODE     ---       #207
      00FF3494H   LINE      CODE     ---       #208
      00FF3497H   LINE      CODE     ---       #209
      00FF349AH   LINE      CODE     ---       #210
      00FF349DH   LINE      CODE     ---       #211
      00FF34A0H   LINE      CODE     ---       #212
      00FF34A3H   LINE      CODE     ---       #213
      00FF34A6H   LINE      CODE     ---       #214
      00FF34A9H   LINE      CODE     ---       #215
      00FF34ACH   LINE      CODE     ---       #216
      00FF34AFH   LINE      CODE     ---       #217
      00FF34B2H   LINE      CODE     ---       #218
      00FF34B5H   LINE      CODE     ---       #220
      00FF34B8H   LINE      CODE     ---       #221
      00FF34BBH   LINE      CODE     ---       #222
      00FF34BEH   LINE      CODE     ---       #223
      00FF34C1H   LINE      CODE     ---       #224
      00FF34C4H   LINE      CODE     ---       #225
      00FF34C7H   LINE      CODE     ---       #226
      00FF34CAH   LINE      CODE     ---       #227
      00FF34CDH   LINE      CODE     ---       #228
      00FF34D0H   LINE      CODE     ---       #229
      00FF34D3H   LINE      CODE     ---       #231
      ---         BLOCKEND  ---      ---       LVL=0
      R15         REGSYM    ---      CHAR      c

      00FF005EH   BLOCK     CODE     ---       LVL=0
      00FF005EH   LINE      CODE     ---       #245
      00FF005EH   LINE      CODE     ---       #247
      00FF0060H   LINE      CODE     ---       #248
      ---         BLOCKEND  ---      ---       LVL=0

      00FF0056H   BLOCK     CODE     ---       LVL=0
      00FF0056H   LINE      CODE     ---       #251
      00FF0056H   LINE      CODE     ---       #253
      00FF0058H   LINE      CODE     ---       #254
      ---         BLOCKEND  ---      ---       LVL=0

      ---         MODULE    ---      ---       common
      000016B0H   PUBLIC    EDATA    INT       wireless_type
      000000D0H   SFRSYM    DATA     BYTE      PSW
      00000088H   SFRSYM    DATA     BYTE      TCON
L251 LINKER/LOCATER V4.66.93.0                                                        05/01/2022  09:46:42  PAGE 27


      00000098H   SFRSYM    DATA     BYTE      SCON
      000000B8H   SFRSYM    DATA     BYTE      IP
      000000A8H   SFRSYM    DATA     BYTE      IE
      000000F8H   SFRSYM    DATA     BYTE      P7
      000000E8H   SFRSYM    DATA     BYTE      P6
      000000C8H   SFRSYM    DATA     BYTE      P5
      000000C0H   SFRSYM    DATA     BYTE      P4
      000000B0H   SFRSYM    DATA     BYTE      P3
      000000A0H   SFRSYM    DATA     BYTE      P2
      00000090H   SFRSYM    DATA     BYTE      P1
      00000080H   SFRSYM    DATA     BYTE      P0

      ---         MODULE    ---      ---       SEEKFREE_PRINTF
      00FF33CCH   PUBLIC    CODE     ---       number_conversion_ascii
      00FF0EAEH   PUBLIC    CODE     ---       zf_sprintf
      00FF38E2H   PUBLIC    CODE     ---       printf_reverse_order
      0000144FH   PUBLIC    EDATA    ---       ?number_conversion_ascii?BYTE
      00001421H   PUBLIC    EDATA    ---       ?zf_sprintf?BYTE
      000000D0H   SFRSYM    DATA     BYTE      PSW
      00000088H   SFRSYM    DATA     BYTE      TCON
      00000098H   SFRSYM    DATA     BYTE      SCON
      000000B8H   SFRSYM    DATA     BYTE      IP
      000000A8H   SFRSYM    DATA     BYTE      IE
      000000F8H   SFRSYM    DATA     BYTE      P7
      000000E8H   SFRSYM    DATA     BYTE      P6
      000000C8H   SFRSYM    DATA     BYTE      P5
      000000C0H   SFRSYM    DATA     BYTE      P4
      000000B0H   SFRSYM    DATA     BYTE      P3
      000000A0H   SFRSYM    DATA     BYTE      P2
      00000090H   SFRSYM    DATA     BYTE      P1
      00000080H   SFRSYM    DATA     BYTE      P0

      00FF33CCH   BLOCK     CODE     ---       LVL=0
      DR24        REGSYM    ---      DWORD     dat
      REG=7       REGSYM    ---      ---       p
      R10         REGSYM    ---      BYTE      neg_type
      00001458H   SYMBOL    EDATA    BYTE      radix
      00FF33D4H   BLOCK     CODE     NEAR LAB  LVL=1
      DR20        REGSYM    ---      LONG      neg_dat
      DR24        REGSYM    ---      DWORD     pos_dat
      R14         REGSYM    ---      BYTE      temp_data
      R15         REGSYM    ---      BYTE      valid_num
      ---         BLOCKEND  ---      ---       LVL=1
      00FF33CCH   LINE      CODE     ---       #25
      00FF33D4H   LINE      CODE     ---       #26
      00FF33D4H   LINE      CODE     ---       #29
      00FF33D4H   LINE      CODE     ---       #30
      00FF33D6H   LINE      CODE     ---       #32
      00FF33DAH   LINE      CODE     ---       #34
      00FF33DCH   LINE      CODE     ---       #35
      00FF33ECH   LINE      CODE     ---       #36
      00FF33ECH   LINE      CODE     ---       #38
      00FF3402H   LINE      CODE     ---       #39
      00FF3411H   LINE      CODE     ---       #40
      00FF3413H   LINE      CODE     ---       #42
      00FF3419H   LINE      CODE     ---       #43
      00FF341BH   LINE      CODE     ---       #44
      00FF341DH   LINE      CODE     ---       #45
      00FF341FH   LINE      CODE     ---       #48
      00FF341FH   LINE      CODE     ---       #49
      00FF341FH   LINE      CODE     ---       #51
      00FF342EH   LINE      CODE     ---       #52
      00FF3438H   LINE      CODE     ---       #53
      00FF343BH   LINE      CODE     ---       #55
      00FF343EH   LINE      CODE     ---       #57
L251 LINKER/LOCATER V4.66.93.0                                                        05/01/2022  09:46:42  PAGE 28


      00FF344DH   LINE      CODE     ---       #58
      00FF344FH   LINE      CODE     ---       #60
      00FF3455H   LINE      CODE     ---       #61
      00FF3457H   LINE      CODE     ---       #62
      00FF3459H   LINE      CODE     ---       #63
      00FF3459H   LINE      CODE     ---       #64
      00FF345BH   LINE      CODE     ---       #65
      ---         BLOCKEND  ---      ---       LVL=0

      00FF38E2H   BLOCK     CODE     ---       LVL=0
      REG=7       REGSYM    ---      ---       d_buff
      DR24        REGSYM    ---      DWORD     len
      00FF38E6H   BLOCK     CODE     NEAR LAB  LVL=1
      DR4         REGSYM    ---      DWORD     i
      R3          REGSYM    ---      CHAR      temp_data
      ---         BLOCKEND  ---      ---       LVL=1
      00FF38E2H   LINE      CODE     ---       #67
      00FF38E6H   LINE      CODE     ---       #68
      00FF38E6H   LINE      CODE     ---       #71
      00FF38EAH   LINE      CODE     ---       #73
      00FF38F9H   LINE      CODE     ---       #74
      00FF3907H   LINE      CODE     ---       #75
      00FF390EH   LINE      CODE     ---       #76
      00FF391FH   LINE      CODE     ---       #77
      ---         BLOCKEND  ---      ---       LVL=0

      00FF0EAEH   BLOCK     CODE     ---       LVL=0
      REG=3       REGSYM    ---      ---       buff
      00001425H   SYMBOL    EDATA    ---       format
      00FF0EB6H   BLOCK     CODE     NEAR LAB  LVL=1
      00001429H   SYMBOL    EDATA    DWORD     buff_len
      0000142DH   SYMBOL    EDATA    ---       arg
      00FF0ECBH   BLOCK     CODE     NEAR LAB  LVL=2
      00001431H   SYMBOL    EDATA    CHAR      ret
      00FF0FF5H   BLOCK     CODE     NEAR LAB  LVL=3
      00001432H   SYMBOL    EDATA    CHAR      ch
      ---         BLOCKEND  ---      ---       LVL=3
      00FF100EH   BLOCK     CODE     NEAR LAB  LVL=3
      00001432H   SYMBOL    EDATA    ---       vstr
      00001453H   SYMBOL    EDATA    LONG      ival
      00001457H   SYMBOL    EDATA    BYTE      vlen
      ---         BLOCKEND  ---      ---       LVL=3
      00FF1087H   BLOCK     CODE     NEAR LAB  LVL=3
      00001432H   SYMBOL    EDATA    ---       vstr
      00001453H   SYMBOL    EDATA    FLOAT     ival
      00001457H   SYMBOL    EDATA    BYTE      vlen
      ---         BLOCKEND  ---      ---       LVL=3
      00FF11C2H   BLOCK     CODE     NEAR LAB  LVL=3
      00001432H   SYMBOL    EDATA    ---       vstr
      00001453H   SYMBOL    EDATA    DWORD     ival
      00001457H   SYMBOL    EDATA    BYTE      vlen
      ---         BLOCKEND  ---      ---       LVL=3
      00FF121AH   BLOCK     CODE     NEAR LAB  LVL=3
      00001432H   SYMBOL    EDATA    ---       vstr
      00001453H   SYMBOL    EDATA    DWORD     ival
      00001457H   SYMBOL    EDATA    BYTE      vlen
      ---         BLOCKEND  ---      ---       LVL=3
      00FF1271H   BLOCK     CODE     NEAR LAB  LVL=3
      00001432H   SYMBOL    EDATA    ---       vstr
      00001453H   SYMBOL    EDATA    DWORD     ival
      00001457H   SYMBOL    EDATA    BYTE      vlen
      ---         BLOCKEND  ---      ---       LVL=3
      00FF12D3H   BLOCK     CODE     NEAR LAB  LVL=3
      00001432H   SYMBOL    EDATA    ---       pc
      ---         BLOCKEND  ---      ---       LVL=3
L251 LINKER/LOCATER V4.66.93.0                                                        05/01/2022  09:46:42  PAGE 29


      00FF1315H   BLOCK     CODE     NEAR LAB  LVL=3
      00001432H   SYMBOL    EDATA    ---       vstr
      00001453H   SYMBOL    EDATA    DWORD     ival
      ---         BLOCKEND  ---      ---       LVL=3
      ---         BLOCKEND  ---      ---       LVL=2
      ---         BLOCKEND  ---      ---       LVL=1
      00FF0EAEH   LINE      CODE     ---       #212
      00FF0EB6H   LINE      CODE     ---       #213
      00FF0EB6H   LINE      CODE     ---       #214
      00FF0EBCH   LINE      CODE     ---       #216
      00FF0EC8H   LINE      CODE     ---       #218
      00FF0ECBH   LINE      CODE     ---       #219
      00FF0ECBH   LINE      CODE     ---       #220
      00FF0ED6H   LINE      CODE     ---       #221
      00FF0EDEH   LINE      CODE     ---       #223
      00FF0FF5H   LINE      CODE     ---       #225
      00FF0FF5H   LINE      CODE     ---       #229
      00FF0FF5H   LINE      CODE     ---       #232
      00FF0FF5H   LINE      CODE     ---       #233
      00FF0FF5H   LINE      CODE     ---       #234
      00FF100BH   LINE      CODE     ---       #235
      00FF100BH   LINE      CODE     ---       #236
      00FF100BH   LINE      CODE     ---       #237
      00FF100BH   LINE      CODE     ---       #239
      00FF100EH   LINE      CODE     ---       #242
      00FF100EH   LINE      CODE     ---       #243
      00FF100EH   LINE      CODE     ---       #244
      00FF100EH   LINE      CODE     ---       #246
      00FF1027H   LINE      CODE     ---       #247
      00FF103AH   LINE      CODE     ---       #249
      00FF1044H   LINE      CODE     ---       #251
      00FF1051H   LINE      CODE     ---       #252
      00FF1056H   LINE      CODE     ---       #253
      00FF1056H   LINE      CODE     ---       #254
      00FF1065H   LINE      CODE     ---       #255
      00FF1078H   LINE      CODE     ---       #256
      00FF1080H   LINE      CODE     ---       #257
      00FF1084H   LINE      CODE     ---       #260
      00FF1087H   LINE      CODE     ---       #262
      00FF1087H   LINE      CODE     ---       #263
      00FF1087H   LINE      CODE     ---       #264
      00FF1087H   LINE      CODE     ---       #266
      00FF10A0H   LINE      CODE     ---       #267
      00FF10B6H   LINE      CODE     ---       #269
      00FF10C1H   LINE      CODE     ---       #271
      00FF10CEH   LINE      CODE     ---       #272
      00FF10D3H   LINE      CODE     ---       #273
      00FF10D3H   LINE      CODE     ---       #274
      00FF10E2H   LINE      CODE     ---       #275
      00FF10F5H   LINE      CODE     ---       #276
      00FF10FDH   LINE      CODE     ---       #277
      00FF110FH   LINE      CODE     ---       #279
      00FF1133H   LINE      CODE     ---       #280
      00FF1139H   LINE      CODE     ---       #282
      00FF114BH   LINE      CODE     ---       #283
      00FF114DH   LINE      CODE     ---       #286
      00FF1167H   LINE      CODE     ---       #287
      00FF116DH   LINE      CODE     ---       #288
      00FF116DH   LINE      CODE     ---       #290
      00FF1172H   LINE      CODE     ---       #292
      00FF117CH   LINE      CODE     ---       #293
      00FF1181H   LINE      CODE     ---       #294
      00FF118AH   LINE      CODE     ---       #296
      00FF1192H   LINE      CODE     ---       #297
      00FF1199H   LINE      CODE     ---       #299
L251 LINKER/LOCATER V4.66.93.0                                                        05/01/2022  09:46:42  PAGE 30


      00FF11A8H   LINE      CODE     ---       #300
      00FF11BBH   LINE      CODE     ---       #301
      00FF11BFH   LINE      CODE     ---       #303
      00FF11C2H   LINE      CODE     ---       #306
      00FF11C2H   LINE      CODE     ---       #307
      00FF11C2H   LINE      CODE     ---       #309
      00FF11DBH   LINE      CODE     ---       #310
      00FF11EDH   LINE      CODE     ---       #312
      00FF11F8H   LINE      CODE     ---       #313
      00FF120BH   LINE      CODE     ---       #314
      00FF1213H   LINE      CODE     ---       #315
      00FF1217H   LINE      CODE     ---       #316
      00FF121AH   LINE      CODE     ---       #318
      00FF121AH   LINE      CODE     ---       #319
      00FF121AH   LINE      CODE     ---       #321
      00FF1233H   LINE      CODE     ---       #322
      00FF1245H   LINE      CODE     ---       #324
      00FF1250H   LINE      CODE     ---       #325
      00FF1263H   LINE      CODE     ---       #326
      00FF126BH   LINE      CODE     ---       #327
      00FF126FH   LINE      CODE     ---       #329
      00FF1271H   LINE      CODE     ---       #331
      00FF1271H   LINE      CODE     ---       #332
      00FF1271H   LINE      CODE     ---       #333
      00FF1271H   LINE      CODE     ---       #335
      00FF128AH   LINE      CODE     ---       #336
      00FF129CH   LINE      CODE     ---       #338
      00FF12A7H   LINE      CODE     ---       #339
      00FF12BAH   LINE      CODE     ---       #340
      00FF12C2H   LINE      CODE     ---       #341
      00FF12D0H   LINE      CODE     ---       #342
      00FF12D3H   LINE      CODE     ---       #345
      00FF12D3H   LINE      CODE     ---       #346
      00FF12D3H   LINE      CODE     ---       #347
      00FF12E8H   LINE      CODE     ---       #348
      00FF12EAH   LINE      CODE     ---       #350
      00FF12F4H   LINE      CODE     ---       #351
      00FF12F6H   LINE      CODE     ---       #352
      00FF1300H   LINE      CODE     ---       #353
      00FF130AH   LINE      CODE     ---       #354
      00FF1313H   LINE      CODE     ---       #355
      00FF1315H   LINE      CODE     ---       #357
      00FF1315H   LINE      CODE     ---       #358
      00FF1315H   LINE      CODE     ---       #360
      00FF132EH   LINE      CODE     ---       #362
      00FF133CH   LINE      CODE     ---       #364
      00FF1347H   LINE      CODE     ---       #365
      00FF1358H   LINE      CODE     ---       #366
      00FF135CH   LINE      CODE     ---       #367
      00FF1364H   LINE      CODE     ---       #369
      00FF1366H   LINE      CODE     ---       #372
      00FF1366H   LINE      CODE     ---       #374
      00FF136BH   LINE      CODE     ---       #375
      00FF136DH   LINE      CODE     ---       #376
      00FF1373H   LINE      CODE     ---       #377
      00FF1375H   LINE      CODE     ---       #379
      00FF1375H   LINE      CODE     ---       #380
      00FF1375H   LINE      CODE     ---       #381
      00FF1375H   LINE      CODE     ---       #384
      00FF137FH   LINE      CODE     ---       #385
      00FF1381H   LINE      CODE     ---       #386
      00FF138BH   LINE      CODE     ---       #387
      00FF138BH   LINE      CODE     ---       #388
      00FF1395H   LINE      CODE     ---       #389
      00FF13A1H   LINE      CODE     ---       #392
L251 LINKER/LOCATER V4.66.93.0                                                        05/01/2022  09:46:42  PAGE 31


      00FF13A5H   LINE      CODE     ---       #393
      ---         BLOCKEND  ---      ---       LVL=0

      ---         MODULE    ---      ---       DFPMU_SP
      00FF007DH   PUBLIC    CODE     ---       ?C?CASTF
      00FF3BEBH   PUBLIC    CODE     ---       ?C?FCASTI
      00FF003FH   PUBLIC    CODE     ---       ?C?FCASTL
      00FF0006H   PUBLIC    CODE     ---       ?C?FPADD
      00FF0046H   PUBLIC    CODE     ---       ?C?FPCMP3
      00FF001EH   PUBLIC    CODE     ---       ?C?FPDIV
      00FF0016H   PUBLIC    CODE     ---       ?C?FPMUL
      00FF3BE4H   PUBLIC    CODE     ---       ?C?FPNEG
      00FF000EH   PUBLIC    CODE     ---       ?C?FPSUB
      000000E0H   SFRSYM    DATA     BYTE      ACC
      0000008FH   SFRSYM    DATA     BYTE      DMAIR
      00000083H   SFRSYM    DATA     BYTE      DPH
      00000082H   SFRSYM    DATA     BYTE      DPL
      0000001CH   SYMBOL    NUMBER   ---       DMA_FPADD
      00000030H   SYMBOL    NUMBER   ---       DMA_FPATAN
      00000027H   SYMBOL    NUMBER   ---       DMA_FPCLD
      00000032H   SYMBOL    NUMBER   ---       DMA_FPCLEX
      00000021H   SYMBOL    NUMBER   ---       DMA_FPCMP
      0000002EH   SYMBOL    NUMBER   ---       DMA_FPCOS
      00000035H   SYMBOL    NUMBER   ---       DMA_FPCRR
      00000036H   SYMBOL    NUMBER   ---       DMA_FPCRW
      00000023H   SYMBOL    NUMBER   ---       DMA_FPCST
      0000001FH   SYMBOL    NUMBER   ---       DMA_FPDIV
      00000028H   SYMBOL    NUMBER   ---       DMA_FPILD
      00000031H   SYMBOL    NUMBER   ---       DMA_FPINIT
      00000024H   SYMBOL    NUMBER   ---       DMA_FPIST
      00000029H   SYMBOL    NUMBER   ---       DMA_FPLLD
      00000025H   SYMBOL    NUMBER   ---       DMA_FPLST
      0000001EH   SYMBOL    NUMBER   ---       DMA_FPMUL
      0000002DH   SYMBOL    NUMBER   ---       DMA_FPSIN
      00000020H   SYMBOL    NUMBER   ---       DMA_FPSQRT
      00000033H   SYMBOL    NUMBER   ---       DMA_FPSRR
      00000034H   SYMBOL    NUMBER   ---       DMA_FPSRW
      0000001DH   SYMBOL    NUMBER   ---       DMA_FPSUB
      0000002FH   SYMBOL    NUMBER   ---       DMA_FPTAN
      00000022H   SYMBOL    NUMBER   ---       DMA_FPXAM
      00000001H   SYMBOL    NUMBER   ---       FP_CONV_EN
      00000001H   SYMBOL    NUMBER   ---       FP_REGS_EN
      00000001H   SYMBOL    NUMBER   ---       FP_TRIG_EN

      00FF0006H   BLOCK     CODE     NEAR LAB  LVL=0
      00FF0006H   LINE      CODE     ---       #128
      00FF0009H   LINE      CODE     ---       #129
      ---         BLOCKEND  ---      ---       LVL=0

      00FF000EH   BLOCK     CODE     NEAR LAB  LVL=0
      00FF000EH   LINE      CODE     ---       #138
      00FF0011H   LINE      CODE     ---       #139
      ---         BLOCKEND  ---      ---       LVL=0

      00FF0016H   BLOCK     CODE     NEAR LAB  LVL=0
      00FF0016H   LINE      CODE     ---       #148
      00FF0019H   LINE      CODE     ---       #149
      ---         BLOCKEND  ---      ---       LVL=0

      00FF001EH   BLOCK     CODE     NEAR LAB  LVL=0
      00FF001EH   LINE      CODE     ---       #158
      00FF0021H   LINE      CODE     ---       #159
      ---         BLOCKEND  ---      ---       LVL=0

      00FF0046H   BLOCK     CODE     NEAR LAB  LVL=0
L251 LINKER/LOCATER V4.66.93.0                                                        05/01/2022  09:46:42  PAGE 32


      00FF0046H   LINE      CODE     ---       #179
      00FF0049H   LINE      CODE     ---       #180
      00FF004BH   LINE      CODE     ---       #181
      00FF004DH   LINE      CODE     ---       #182
      00FF004FH   LINE      CODE     ---       #183
      00FF0051H   LINE      CODE     ---       #184
      ---         BLOCKEND  ---      ---       LVL=0

      00FF3BE4H   BLOCK     CODE     NEAR LAB  LVL=0
      00FF3BE4H   LINE      CODE     ---       #204
      00FF3BE6H   LINE      CODE     ---       #205
      00FF3BE8H   LINE      CODE     ---       #206
      00FF3BEAH   LINE      CODE     ---       #207
      ---         BLOCKEND  ---      ---       LVL=0

      00FF007DH   BLOCK     CODE     NEAR LAB  LVL=0
      00FF007DH   LINE      CODE     ---       #279
      00FF0080H   LINE      CODE     ---       #280
      00FF0082H   LINE      CODE     ---       #281
      ---         BLOCKEND  ---      ---       LVL=0

      00FF3BEBH   BLOCK     CODE     NEAR LAB  LVL=0
      00FF3BEBH   LINE      CODE     ---       #301
      00FF3BEDH   LINE      CODE     ---       #302
      00FF3BF0H   LINE      CODE     ---       #303
      ---         BLOCKEND  ---      ---       LVL=0

      00FF003FH   BLOCK     CODE     NEAR LAB  LVL=0
      00FF003FH   LINE      CODE     ---       #312
      00FF0042H   LINE      CODE     ---       #313
      ---         BLOCKEND  ---      ---       LVL=0

      ---         MODULE    ---      ---       zf_adc
      00FF3A6CH   PUBLIC    CODE     ---       adc_once
      00FF35E3H   PUBLIC    CODE     ---       adc_init
      000000F2H   SFRSYM    DATA     BYTE      P0M0
      000000D0H   SFRSYM    DATA     BYTE      PSW
      000000DEH   SFRSYM    DATA     BYTE      ADC_RESL
      00000088H   SFRSYM    DATA     BYTE      TCON
      00000098H   SFRSYM    DATA     BYTE      SCON
      000000DCH   SFRSYM    DATA     BYTE      ADC_CONTR
      000000DFH   SFRSYM    DATA     BYTE      ADCCFG
      000000B8H   SFRSYM    DATA     BYTE      IP
      000000DDH   SFRSYM    DATA     BYTE      ADC_RES
      000000A8H   SFRSYM    DATA     BYTE      IE
      000000F8H   SFRSYM    DATA     BYTE      P7
      000000E8H   SFRSYM    DATA     BYTE      P6
      000000C8H   SFRSYM    DATA     BYTE      P5
      000000C0H   SFRSYM    DATA     BYTE      P4
      000000B0H   SFRSYM    DATA     BYTE      P3
      000000A0H   SFRSYM    DATA     BYTE      P2
      00000090H   SFRSYM    DATA     BYTE      P1
      00000080H   SFRSYM    DATA     BYTE      P0
      000000F3H   SFRSYM    DATA     BYTE      P1M1
      000000F1H   SFRSYM    DATA     BYTE      P0M1
      000000F4H   SFRSYM    DATA     BYTE      P1M0

      00FF35E3H   BLOCK     CODE     ---       LVL=0
      WR4         REGSYM    ---      INT       adcn
      WR2         REGSYM    ---      INT       speed
      00FF35E3H   LINE      CODE     ---       #32
      00FF35E7H   LINE      CODE     ---       #34
      00FF35EAH   LINE      CODE     ---       #36
      00FF35EDH   LINE      CODE     ---       #37
      00FF35F3H   LINE      CODE     ---       #39
L251 LINKER/LOCATER V4.66.93.0                                                        05/01/2022  09:46:42  PAGE 33


      00FF35FFH   LINE      CODE     ---       #42
      00FF3614H   LINE      CODE     ---       #43
      00FF3618H   LINE      CODE     ---       #44
      00FF361AH   LINE      CODE     ---       #45
      00FF361EH   LINE      CODE     ---       #48
      00FF3633H   LINE      CODE     ---       #49
      00FF3637H   LINE      CODE     ---       #50
      00FF3637H   LINE      CODE     ---       #52
      00FF363DH   LINE      CODE     ---       #54
      00FF3640H   LINE      CODE     ---       #55
      ---         BLOCKEND  ---      ---       LVL=0

      00FF3A6CH   BLOCK     CODE     ---       LVL=0
      WR6         REGSYM    ---      INT       adcn
      WR4         REGSYM    ---      INT       resolution
      WR6         REGSYM    ---      WORD      adc_value
      00FF3A6CH   LINE      CODE     ---       #66
      00FF3A6CH   LINE      CODE     ---       #67
      00FF3A6CH   LINE      CODE     ---       #70
      00FF3A6FH   LINE      CODE     ---       #71
      00FF3A73H   LINE      CODE     ---       #73
      00FF3A76H   LINE      CODE     ---       #74
      00FF3A7BH   LINE      CODE     ---       #75
      00FF3A7EH   LINE      CODE     ---       #77
      00FF3A80H   LINE      CODE     ---       #78
      00FF3A84H   LINE      CODE     ---       #79
      00FF3A8AH   LINE      CODE     ---       #81
      00FF3A8DH   LINE      CODE     ---       #82
      00FF3A90H   LINE      CODE     ---       #84
      00FF3A99H   LINE      CODE     ---       #87
      00FF3A99H   LINE      CODE     ---       #88
      ---         BLOCKEND  ---      ---       LVL=0

      ---         MODULE    ---      ---       zf_delay
      00FF3999H   PUBLIC    CODE     ---       delay_init
      00FF0066H   PUBLIC    CODE     ---       delay_ms
      000016ACH   PUBLIC    EDATA    WORD      zf_delay_ms
      000016AEH   PUBLIC    EDATA    WORD      zf_delay_us
      000000D0H   SFRSYM    DATA     BYTE      PSW
      00000088H   SFRSYM    DATA     BYTE      TCON
      00000098H   SFRSYM    DATA     BYTE      SCON
      000000B8H   SFRSYM    DATA     BYTE      IP
      000000A8H   SFRSYM    DATA     BYTE      IE
      000000F8H   SFRSYM    DATA     BYTE      P7
      000000E8H   SFRSYM    DATA     BYTE      P6
      000000C8H   SFRSYM    DATA     BYTE      P5
      000000C0H   SFRSYM    DATA     BYTE      P4
      000000B0H   SFRSYM    DATA     BYTE      P3
      000000A0H   SFRSYM    DATA     BYTE      P2
      00000090H   SFRSYM    DATA     BYTE      P1
      00000080H   SFRSYM    DATA     BYTE      P0

      00FF3999H   BLOCK     CODE     ---       LVL=0
      00FF3999H   LINE      CODE     ---       #34
      00FF3999H   LINE      CODE     ---       #36
      00FF39AAH   LINE      CODE     ---       #37
      00FF39BBH   LINE      CODE     ---       #38
      00FF39D1H   LINE      CODE     ---       #40
      ---         BLOCKEND  ---      ---       LVL=0

      00FF0066H   BLOCK     CODE     ---       LVL=0
      WR4         REGSYM    ---      WORD      ms
      00FF0068H   BLOCK     CODE     NEAR LAB  LVL=1
      WR6         REGSYM    ---      WORD      i
      ---         BLOCKEND  ---      ---       LVL=1
L251 LINKER/LOCATER V4.66.93.0                                                        05/01/2022  09:46:42  PAGE 34


      00FF0066H   LINE      CODE     ---       #48
      00FF0068H   LINE      CODE     ---       #49
      00FF0068H   LINE      CODE     ---       #51
      00FF0068H   LINE      CODE     ---       #52
      00FF006CH   LINE      CODE     ---       #54
      00FF0074H   LINE      CODE     ---       #55
      00FF007CH   LINE      CODE     ---       #56
      ---         BLOCKEND  ---      ---       LVL=0
      DR0         REGSYM    ---      DWORD     us
      WR6         REGSYM    ---      WORD      i

      ---         MODULE    ---      ---       zf_exti
      000000D0H   SFRSYM    DATA     BYTE      PSW
      00000088H.2 SFRSYM    DATA     BIT       IT1
      000000A8H.2 SFRSYM    DATA     BIT       EX1
      00000088H.0 SFRSYM    DATA     BIT       IT0
      000000A8H.0 SFRSYM    DATA     BIT       EX0
      00000088H   SFRSYM    DATA     BYTE      TCON
      00000098H   SFRSYM    DATA     BYTE      SCON
      000000B8H   SFRSYM    DATA     BYTE      IP
      00000095H   SFRSYM    DATA     BYTE      INTCLKO
      000000A8H   SFRSYM    DATA     BYTE      IE
      000000F8H   SFRSYM    DATA     BYTE      P7
      000000E8H   SFRSYM    DATA     BYTE      P6
      000000C8H   SFRSYM    DATA     BYTE      P5
      000000C0H   SFRSYM    DATA     BYTE      P4
      000000B0H   SFRSYM    DATA     BYTE      P3
      000000A0H   SFRSYM    DATA     BYTE      P2
      00000090H   SFRSYM    DATA     BYTE      P1
      00000080H   SFRSYM    DATA     BYTE      P0
      WR4         REGSYM    ---      INT       int_n
      WR2         REGSYM    ---      INT       mode

      ---         MODULE    ---      ---       zf_gpio
      00FF17F5H   PUBLIC    CODE     ---       gpio_mode
      000000F2H   SFRSYM    DATA     BYTE      P0M0
      000000D0H   SFRSYM    DATA     BYTE      PSW
      00000088H   SFRSYM    DATA     BYTE      TCON
      00000098H   SFRSYM    DATA     BYTE      SCON
      000000B8H   SFRSYM    DATA     BYTE      IP
      000000A8H   SFRSYM    DATA     BYTE      IE
      000000F8H   SFRSYM    DATA     BYTE      P7
      000000D2H   SFRSYM    DATA     BYTE      P7M1
      000000E8H   SFRSYM    DATA     BYTE      P6
      000000C8H   SFRSYM    DATA     BYTE      P5
      000000D3H   SFRSYM    DATA     BYTE      P7M0
      000000EEH   SFRSYM    DATA     BYTE      P6M1
      000000C0H   SFRSYM    DATA     BYTE      P4
      000000ECH   SFRSYM    DATA     BYTE      P5M1
      000000EFH   SFRSYM    DATA     BYTE      P6M0
      000000B0H   SFRSYM    DATA     BYTE      P3
      000000EDH   SFRSYM    DATA     BYTE      P5M0
      000000FBH   SFRSYM    DATA     BYTE      P4M1
      000000A0H   SFRSYM    DATA     BYTE      P2
      000000F9H   SFRSYM    DATA     BYTE      P3M1
      000000FCH   SFRSYM    DATA     BYTE      P4M0
      00000090H   SFRSYM    DATA     BYTE      P1
      000000F5H   SFRSYM    DATA     BYTE      P2M1
      000000FAH   SFRSYM    DATA     BYTE      P3M0
      00000080H   SFRSYM    DATA     BYTE      P0
      000000F3H   SFRSYM    DATA     BYTE      P1M1
      000000F6H   SFRSYM    DATA     BYTE      P2M0
      000000F1H   SFRSYM    DATA     BYTE      P0M1
      000000F4H   SFRSYM    DATA     BYTE      P1M0
      WR4         REGSYM    ---      INT       pin
L251 LINKER/LOCATER V4.66.93.0                                                        05/01/2022  09:46:42  PAGE 35


      WR2         REGSYM    ---      INT       pull

      00FF17F5H   BLOCK     CODE     ---       LVL=0
      WR4         REGSYM    ---      INT       pin
      WR2         REGSYM    ---      INT       mode
      00FF17F5H   LINE      CODE     ---       #54
      00FF17F9H   LINE      CODE     ---       #56
      00FF1800H   LINE      CODE     ---       #58
      00FF1808H   LINE      CODE     ---       #60
      00FF1820H   LINE      CODE     ---       #61
      00FF1822H   LINE      CODE     ---       #62
      00FF1822H   LINE      CODE     ---       #63
      00FF1828H   LINE      CODE     ---       #65
      00FF1840H   LINE      CODE     ---       #66
      00FF1842H   LINE      CODE     ---       #67
      00FF1842H   LINE      CODE     ---       #68
      00FF1848H   LINE      CODE     ---       #70
      00FF1860H   LINE      CODE     ---       #71
      00FF1862H   LINE      CODE     ---       #72
      00FF1862H   LINE      CODE     ---       #74
      00FF1868H   LINE      CODE     ---       #76
      00FF1880H   LINE      CODE     ---       #77
      00FF1882H   LINE      CODE     ---       #78
      00FF1882H   LINE      CODE     ---       #79
      00FF1888H   LINE      CODE     ---       #81
      00FF18A0H   LINE      CODE     ---       #82
      00FF18A2H   LINE      CODE     ---       #83
      00FF18A2H   LINE      CODE     ---       #84
      00FF18A8H   LINE      CODE     ---       #86
      00FF18C0H   LINE      CODE     ---       #87
      00FF18C2H   LINE      CODE     ---       #88
      00FF18C2H   LINE      CODE     ---       #89
      00FF18C8H   LINE      CODE     ---       #91
      00FF18E0H   LINE      CODE     ---       #92
      00FF18E2H   LINE      CODE     ---       #93
      00FF18E2H   LINE      CODE     ---       #94
      00FF18EBH   LINE      CODE     ---       #96
      00FF1903H   LINE      CODE     ---       #97
      00FF1905H   LINE      CODE     ---       #98
      00FF1906H   LINE      CODE     ---       #100
      00FF190FH   LINE      CODE     ---       #102
      00FF1917H   LINE      CODE     ---       #104
      00FF192CH   LINE      CODE     ---       #105
      00FF1930H   LINE      CODE     ---       #106
      00FF1930H   LINE      CODE     ---       #107
      00FF1936H   LINE      CODE     ---       #109
      00FF194BH   LINE      CODE     ---       #110
      00FF194FH   LINE      CODE     ---       #111
      00FF194FH   LINE      CODE     ---       #112
      00FF1955H   LINE      CODE     ---       #114
      00FF196AH   LINE      CODE     ---       #115
      00FF196EH   LINE      CODE     ---       #116
      00FF196EH   LINE      CODE     ---       #118
      00FF1974H   LINE      CODE     ---       #120
      00FF1989H   LINE      CODE     ---       #121
      00FF198DH   LINE      CODE     ---       #122
      00FF198DH   LINE      CODE     ---       #123
      00FF1993H   LINE      CODE     ---       #125
      00FF19A8H   LINE      CODE     ---       #126
      00FF19ACH   LINE      CODE     ---       #127
      00FF19ACH   LINE      CODE     ---       #128
      00FF19B2H   LINE      CODE     ---       #130
      00FF19C7H   LINE      CODE     ---       #131
      00FF19CBH   LINE      CODE     ---       #132
      00FF19CBH   LINE      CODE     ---       #133
L251 LINKER/LOCATER V4.66.93.0                                                        05/01/2022  09:46:42  PAGE 36


      00FF19D1H   LINE      CODE     ---       #135
      00FF19E6H   LINE      CODE     ---       #136
      00FF19EAH   LINE      CODE     ---       #137
      00FF19EAH   LINE      CODE     ---       #138
      00FF19F3H   LINE      CODE     ---       #140
      00FF1A0AH   LINE      CODE     ---       #141
      00FF1A0AH   LINE      CODE     ---       #142
      00FF1A0DH   LINE      CODE     ---       #145
      00FF1A16H   LINE      CODE     ---       #147
      00FF1A1EH   LINE      CODE     ---       #149
      00FF1A31H   LINE      CODE     ---       #150
      00FF1A35H   LINE      CODE     ---       #151
      00FF1A35H   LINE      CODE     ---       #152
      00FF1A3BH   LINE      CODE     ---       #154
      00FF1A4EH   LINE      CODE     ---       #155
      00FF1A52H   LINE      CODE     ---       #156
      00FF1A52H   LINE      CODE     ---       #157
      00FF1A58H   LINE      CODE     ---       #159
      00FF1A6BH   LINE      CODE     ---       #160
      00FF1A6FH   LINE      CODE     ---       #161
      00FF1A6FH   LINE      CODE     ---       #163
      00FF1A75H   LINE      CODE     ---       #165
      00FF1A88H   LINE      CODE     ---       #166
      00FF1A8CH   LINE      CODE     ---       #167
      00FF1A8CH   LINE      CODE     ---       #168
      00FF1A92H   LINE      CODE     ---       #170
      00FF1AA5H   LINE      CODE     ---       #171
      00FF1AA9H   LINE      CODE     ---       #172
      00FF1AA9H   LINE      CODE     ---       #173
      00FF1AAFH   LINE      CODE     ---       #175
      00FF1AC2H   LINE      CODE     ---       #176
      00FF1AC6H   LINE      CODE     ---       #177
      00FF1AC6H   LINE      CODE     ---       #178
      00FF1ACCH   LINE      CODE     ---       #180
      00FF1ADFH   LINE      CODE     ---       #181
      00FF1AE3H   LINE      CODE     ---       #182
      00FF1AE3H   LINE      CODE     ---       #183
      00FF1AECH   LINE      CODE     ---       #185
      00FF1AFFH   LINE      CODE     ---       #186
      00FF1B03H   LINE      CODE     ---       #187
      00FF1B04H   LINE      CODE     ---       #189
      00FF1B0DH   LINE      CODE     ---       #191
      00FF1B15H   LINE      CODE     ---       #193
      00FF1B28H   LINE      CODE     ---       #194
      00FF1B2AH   LINE      CODE     ---       #195
      00FF1B2AH   LINE      CODE     ---       #196
      00FF1B30H   LINE      CODE     ---       #198
      00FF1B43H   LINE      CODE     ---       #199
      00FF1B45H   LINE      CODE     ---       #200
      00FF1B45H   LINE      CODE     ---       #201
      00FF1B4BH   LINE      CODE     ---       #203
      00FF1B5EH   LINE      CODE     ---       #204
      00FF1B60H   LINE      CODE     ---       #205
      00FF1B60H   LINE      CODE     ---       #207
      00FF1B66H   LINE      CODE     ---       #209
      00FF1B79H   LINE      CODE     ---       #210
      00FF1B7BH   LINE      CODE     ---       #211
      00FF1B7BH   LINE      CODE     ---       #212
      00FF1B81H   LINE      CODE     ---       #214
      00FF1B94H   LINE      CODE     ---       #215
      00FF1B96H   LINE      CODE     ---       #216
      00FF1B96H   LINE      CODE     ---       #217
      00FF1B9CH   LINE      CODE     ---       #219
      00FF1BAFH   LINE      CODE     ---       #220
      00FF1BB1H   LINE      CODE     ---       #221
L251 LINKER/LOCATER V4.66.93.0                                                        05/01/2022  09:46:42  PAGE 37


      00FF1BB1H   LINE      CODE     ---       #222
      00FF1BB7H   LINE      CODE     ---       #224
      00FF1BCAH   LINE      CODE     ---       #225
      00FF1BCCH   LINE      CODE     ---       #226
      00FF1BCCH   LINE      CODE     ---       #227
      00FF1BD2H   LINE      CODE     ---       #229
      00FF1BE7H   LINE      CODE     ---       #230
      00FF1BEBH   LINE      CODE     ---       #231
      00FF1BEBH   LINE      CODE     ---       #233
      ---         BLOCKEND  ---      ---       LVL=0

      ---         MODULE    ---      ---       zf_iic
      000000D0H   SFRSYM    DATA     BYTE      PSW
      00000088H   SFRSYM    DATA     BYTE      TCON
      00000098H   SFRSYM    DATA     BYTE      SCON
      000000B8H   SFRSYM    DATA     BYTE      IP
      000000A8H   SFRSYM    DATA     BYTE      IE
      0000009BH   SFRSYM    DATA     BYTE      P_SW2
      000000F8H   SFRSYM    DATA     BYTE      P7
      000000E8H   SFRSYM    DATA     BYTE      P6
      000000C8H   SFRSYM    DATA     BYTE      P5
      000000C0H   SFRSYM    DATA     BYTE      P4
      000000B0H   SFRSYM    DATA     BYTE      P3
      000000A0H   SFRSYM    DATA     BYTE      P2
      00000090H   SFRSYM    DATA     BYTE      P1
      00000080H   SFRSYM    DATA     BYTE      P0
      WR6         REGSYM    ---      WORD      x
      R10         REGSYM    ---      BYTE      i
      WR12        REGSYM    ---      WORD      count
      R15         REGSYM    ---      BYTE      ret
      R11         REGSYM    ---      BYTE      ret
      R11         REGSYM    ---      CHAR      dat
      R11         REGSYM    ---      BYTE      ret
      R11         REGSYM    ---      BYTE      ret
      R11         REGSYM    ---      BYTE      ret
      R11         REGSYM    ---      BYTE      ret
      WR6         REGSYM    ---      INT       iic_n
      R13         REGSYM    ---      BYTE      dev_add
      R14         REGSYM    ---      BYTE      reg
      R15         REGSYM    ---      BYTE      dat
      R15         REGSYM    ---      BYTE      dev_add
      R14         REGSYM    ---      BYTE      reg
      REG=3       REGSYM    ---      ---       dat
      WR6         REGSYM    ---      INT       iic_n

      ---         MODULE    ---      ---       zf_nvic
      000000D0H   SFRSYM    DATA     BYTE      PSW
      000000B7H   SFRSYM    DATA     BYTE      IPH
      000000FEH   SFRSYM    DATA     BYTE      IP2
      00000088H   SFRSYM    DATA     BYTE      TCON
      00000098H   SFRSYM    DATA     BYTE      SCON
      000000B8H   SFRSYM    DATA     BYTE      IP
      000000B6H   SFRSYM    DATA     BYTE      IP2H
      000000A8H   SFRSYM    DATA     BYTE      IE
      000000F8H   SFRSYM    DATA     BYTE      P7
      000000E8H   SFRSYM    DATA     BYTE      P6
      000000C8H   SFRSYM    DATA     BYTE      P5
      000000C0H   SFRSYM    DATA     BYTE      P4
      000000B0H   SFRSYM    DATA     BYTE      P3
      000000A0H   SFRSYM    DATA     BYTE      P2
      00000090H   SFRSYM    DATA     BYTE      P1
      00000080H   SFRSYM    DATA     BYTE      P0
      WR4         REGSYM    ---      INT       irqn
      R3          REGSYM    ---      BYTE      priority

L251 LINKER/LOCATER V4.66.93.0                                                        05/01/2022  09:46:42  PAGE 38


      ---         MODULE    ---      ---       zf_pwm
      00FF2D62H   PUBLIC    CODE     ---       pwm_duty
      00FF1ED0H   PUBLIC    CODE     ---       pwm_set_gpio
      00FF1BECH   PUBLIC    CODE     ---       pwm_init
      00FF3E07H   PUBLIC    HCONST   ---       PWM_CCR_ADDR
      00FF3E27H   PUBLIC    HCONST   ---       PWM_ARR_ADDR
      00FF3E2FH   PUBLIC    HCONST   ---       PWM_CCER_ADDR
      00FF3E3FH   PUBLIC    HCONST   ---       PWM_CCMR_ADDR
      000013CCH   PUBLIC    EDATA    ---       ?pwm_init?BYTE
      000000D0H   SFRSYM    DATA     BYTE      PSW
      00000088H   SFRSYM    DATA     BYTE      TCON
      00000098H   SFRSYM    DATA     BYTE      SCON
      000000B8H   SFRSYM    DATA     BYTE      IP
      000000A8H   SFRSYM    DATA     BYTE      IE
      0000009BH   SFRSYM    DATA     BYTE      P_SW2
      000000F8H   SFRSYM    DATA     BYTE      P7
      000000E8H   SFRSYM    DATA     BYTE      P6
      000000C8H   SFRSYM    DATA     BYTE      P5
      000000C0H   SFRSYM    DATA     BYTE      P4
      000000B0H   SFRSYM    DATA     BYTE      P3
      000000A0H   SFRSYM    DATA     BYTE      P2
      00000090H   SFRSYM    DATA     BYTE      P1
      00000080H   SFRSYM    DATA     BYTE      P0

      00FF1ED0H   BLOCK     CODE     ---       LVL=0
      WR6         REGSYM    ---      INT       pwmch
      00FF1ED0H   LINE      CODE     ---       #49
      00FF1ED0H   LINE      CODE     ---       #51
      00FF2043H   LINE      CODE     ---       #53
      00FF2043H   LINE      CODE     ---       #55
      00FF2047H   LINE      CODE     ---       #56
      00FF204AH   LINE      CODE     ---       #58
      00FF204AH   LINE      CODE     ---       #60
      00FF204EH   LINE      CODE     ---       #61
      00FF2051H   LINE      CODE     ---       #63
      00FF2051H   LINE      CODE     ---       #65
      00FF2055H   LINE      CODE     ---       #66
      00FF2058H   LINE      CODE     ---       #68
      00FF2058H   LINE      CODE     ---       #70
      00FF205CH   LINE      CODE     ---       #71
      00FF205FH   LINE      CODE     ---       #73
      00FF205FH   LINE      CODE     ---       #75
      00FF2063H   LINE      CODE     ---       #76
      00FF2066H   LINE      CODE     ---       #78
      00FF2066H   LINE      CODE     ---       #80
      00FF206AH   LINE      CODE     ---       #81
      00FF206DH   LINE      CODE     ---       #84
      00FF206DH   LINE      CODE     ---       #86
      00FF2071H   LINE      CODE     ---       #87
      00FF2074H   LINE      CODE     ---       #89
      00FF2074H   LINE      CODE     ---       #91
      00FF2078H   LINE      CODE     ---       #92
      00FF207BH   LINE      CODE     ---       #94
      00FF207BH   LINE      CODE     ---       #96
      00FF207FH   LINE      CODE     ---       #97
      00FF2082H   LINE      CODE     ---       #99
      00FF2082H   LINE      CODE     ---       #101
      00FF2086H   LINE      CODE     ---       #102
      00FF2089H   LINE      CODE     ---       #104
      00FF2089H   LINE      CODE     ---       #106
      00FF208DH   LINE      CODE     ---       #107
      00FF2090H   LINE      CODE     ---       #109
      00FF2090H   LINE      CODE     ---       #111
      00FF2094H   LINE      CODE     ---       #112
      00FF2097H   LINE      CODE     ---       #115
L251 LINKER/LOCATER V4.66.93.0                                                        05/01/2022  09:46:42  PAGE 39


      00FF2097H   LINE      CODE     ---       #117
      00FF209BH   LINE      CODE     ---       #118
      00FF209DH   LINE      CODE     ---       #120
      00FF209DH   LINE      CODE     ---       #122
      00FF20A1H   LINE      CODE     ---       #123
      00FF20A3H   LINE      CODE     ---       #125
      00FF20A3H   LINE      CODE     ---       #127
      00FF20A7H   LINE      CODE     ---       #128
      00FF20A9H   LINE      CODE     ---       #130
      00FF20A9H   LINE      CODE     ---       #132
      00FF20ADH   LINE      CODE     ---       #133
      00FF20AFH   LINE      CODE     ---       #135
      00FF20AFH   LINE      CODE     ---       #137
      00FF20B3H   LINE      CODE     ---       #138
      00FF20B5H   LINE      CODE     ---       #140
      00FF20B5H   LINE      CODE     ---       #142
      00FF20B9H   LINE      CODE     ---       #143
      00FF20BBH   LINE      CODE     ---       #147
      00FF20BBH   LINE      CODE     ---       #149
      00FF20BFH   LINE      CODE     ---       #150
      00FF20C1H   LINE      CODE     ---       #152
      00FF20C1H   LINE      CODE     ---       #154
      00FF20C5H   LINE      CODE     ---       #155
      00FF20C7H   LINE      CODE     ---       #157
      00FF20C7H   LINE      CODE     ---       #159
      00FF20CBH   LINE      CODE     ---       #160
      00FF20CDH   LINE      CODE     ---       #162
      00FF20CDH   LINE      CODE     ---       #164
      00FF20D1H   LINE      CODE     ---       #165
      00FF20D3H   LINE      CODE     ---       #167
      00FF20D3H   LINE      CODE     ---       #169
      00FF20D7H   LINE      CODE     ---       #170
      00FF20D9H   LINE      CODE     ---       #172
      00FF20D9H   LINE      CODE     ---       #174
      00FF20DDH   LINE      CODE     ---       #175
      00FF20DFH   LINE      CODE     ---       #177
      00FF20DFH   LINE      CODE     ---       #179
      00FF20E3H   LINE      CODE     ---       #180
      00FF20E5H   LINE      CODE     ---       #182
      00FF20E5H   LINE      CODE     ---       #184
      00FF20E9H   LINE      CODE     ---       #185
      00FF20EBH   LINE      CODE     ---       #189
      00FF20EBH   LINE      CODE     ---       #191
      00FF20EFH   LINE      CODE     ---       #192
      00FF20F1H   LINE      CODE     ---       #194
      00FF20F1H   LINE      CODE     ---       #196
      00FF20F5H   LINE      CODE     ---       #197
      00FF20F7H   LINE      CODE     ---       #199
      00FF20F7H   LINE      CODE     ---       #201
      00FF20F9H   LINE      CODE     ---       #202
      00FF20FBH   LINE      CODE     ---       #204
      00FF20FBH   LINE      CODE     ---       #206
      00FF20FFH   LINE      CODE     ---       #207
      00FF2101H   LINE      CODE     ---       #210
      00FF2101H   LINE      CODE     ---       #212
      00FF2105H   LINE      CODE     ---       #213
      00FF2107H   LINE      CODE     ---       #215
      00FF2107H   LINE      CODE     ---       #217
      00FF210BH   LINE      CODE     ---       #218
      00FF210DH   LINE      CODE     ---       #220
      00FF210DH   LINE      CODE     ---       #222
      00FF2113H   LINE      CODE     ---       #223
      00FF2115H   LINE      CODE     ---       #225
      00FF2115H   LINE      CODE     ---       #227
      00FF211DH   LINE      CODE     ---       #228
L251 LINKER/LOCATER V4.66.93.0                                                        05/01/2022  09:46:42  PAGE 40


      00FF211FH   LINE      CODE     ---       #232
      00FF211FH   LINE      CODE     ---       #234
      00FF2127H   LINE      CODE     ---       #235
      00FF2129H   LINE      CODE     ---       #237
      00FF2129H   LINE      CODE     ---       #239
      00FF2131H   LINE      CODE     ---       #240
      00FF2133H   LINE      CODE     ---       #242
      00FF2133H   LINE      CODE     ---       #244
      00FF213BH   LINE      CODE     ---       #245
      00FF213DH   LINE      CODE     ---       #247
      00FF213DH   LINE      CODE     ---       #249
      00FF2145H   LINE      CODE     ---       #250
      00FF2147H   LINE      CODE     ---       #254
      00FF2147H   LINE      CODE     ---       #256
      00FF214FH   LINE      CODE     ---       #257
      00FF2151H   LINE      CODE     ---       #259
      00FF2151H   LINE      CODE     ---       #261
      00FF2159H   LINE      CODE     ---       #262
      00FF215BH   LINE      CODE     ---       #264
      00FF215BH   LINE      CODE     ---       #266
      00FF2163H   LINE      CODE     ---       #267
      00FF2165H   LINE      CODE     ---       #269
      00FF2165H   LINE      CODE     ---       #271
      00FF2170H   LINE      CODE     ---       #272
      00FF2170H   LINE      CODE     ---       #275
      00FF2170H   LINE      CODE     ---       #277
      ---         BLOCKEND  ---      ---       LVL=0

      00FF1BECH   BLOCK     CODE     ---       LVL=0
      WR14        REGSYM    ---      INT       pwmch
      000013CEH   SYMBOL    EDATA    DWORD     freq
      000013D2H   SYMBOL    EDATA    DWORD     duty
      00FF1BF4H   BLOCK     CODE     NEAR LAB  LVL=1
      DR4         REGSYM    ---      DWORD     match_temp
      DR28        REGSYM    ---      DWORD     period_temp
      WR26        REGSYM    ---      WORD      freq_div
      ---         BLOCKEND  ---      ---       LVL=1
      00FF1BECH   LINE      CODE     ---       #290
      00FF1BF4H   LINE      CODE     ---       #291
      00FF1BF4H   LINE      CODE     ---       #295
      00FF1BF4H   LINE      CODE     ---       #298
      00FF1BF7H   LINE      CODE     ---       #301
      00FF1BFAH   LINE      CODE     ---       #305
      00FF1C0BH   LINE      CODE     ---       #306
      00FF1C0BH   LINE      CODE     ---       #307
      00FF1C14H   LINE      CODE     ---       #309
      00FF1C35H   LINE      CODE     ---       #312
      00FF1C3EH   LINE      CODE     ---       #315
      00FF1C69H   LINE      CODE     ---       #316
      00FF1C8AH   LINE      CODE     ---       #319
      00FF1CD6H   LINE      CODE     ---       #322
      00FF1CE5H   LINE      CODE     ---       #323
      00FF1CF0H   LINE      CODE     ---       #325
      00FF1CF9H   LINE      CODE     ---       #326
      00FF1CFFH   LINE      CODE     ---       #327
      00FF1D02H   LINE      CODE     ---       #330
      00FF1D3AH   LINE      CODE     ---       #331
      00FF1D5DH   LINE      CODE     ---       #334
      00FF1DAFH   LINE      CODE     ---       #338
      00FF1DBEH   LINE      CODE     ---       #339
      00FF1DC9H   LINE      CODE     ---       #341
      00FF1DD2H   LINE      CODE     ---       #342
      00FF1DDFH   LINE      CODE     ---       #343
      00FF1DDFH   LINE      CODE     ---       #346
      00FF1E0BH   LINE      CODE     ---       #347
L251 LINKER/LOCATER V4.66.93.0                                                        05/01/2022  09:46:42  PAGE 41


      00FF1E39H   LINE      CODE     ---       #350
      00FF1E5FH   LINE      CODE     ---       #351
      00FF1E8BH   LINE      CODE     ---       #354
      00FF1EA2H   LINE      CODE     ---       #355
      00FF1ECDH   LINE      CODE     ---       #360
      ---         BLOCKEND  ---      ---       LVL=0

      00FF2D62H   BLOCK     CODE     ---       LVL=0
      WR30        REGSYM    ---      INT       pwmch
      DR24        REGSYM    ---      DWORD     duty
      00FF2D66H   BLOCK     CODE     NEAR LAB  LVL=1
      DR0         REGSYM    ---      DWORD     match_temp
      DR20        REGSYM    ---      DWORD     arr
      ---         BLOCKEND  ---      ---       LVL=1
      00FF2D62H   LINE      CODE     ---       #370
      00FF2D66H   LINE      CODE     ---       #371
      00FF2D66H   LINE      CODE     ---       #373
      00FF2DAAH   LINE      CODE     ---       #377
      00FF2DCBH   LINE      CODE     ---       #381
      00FF2DF1H   LINE      CODE     ---       #382
      00FF2E19H   LINE      CODE     ---       #386
      ---         BLOCKEND  ---      ---       LVL=0
      WR30        REGSYM    ---      INT       pwmch
      DR24        REGSYM    ---      DWORD     freq
      DR0         REGSYM    ---      DWORD     match_temp
      DR24        REGSYM    ---      DWORD     period_temp
      WR28        REGSYM    ---      WORD      freq_div

      ---         MODULE    ---      ---       zf_spi
      00FF2952H   PUBLIC    CODE     ---       spi_init
      00FF3B84H   PUBLIC    CODE     ---       spi_mosi
      000013C5H   PUBLIC    EDATA    ---       ?spi_init?BYTE
      000000BBH   SFRSYM    DATA     BYTE      SPDAT
      000000D0H   SFRSYM    DATA     BYTE      PSW
      000000B9H   SFRSYM    DATA     BYTE      SPSTAT
      00000088H   SFRSYM    DATA     BYTE      TCON
      00000098H   SFRSYM    DATA     BYTE      SCON
      000000B8H   SFRSYM    DATA     BYTE      IP
      000000A8H   SFRSYM    DATA     BYTE      IE
      0000009AH   SFRSYM    DATA     BYTE      P_SW1
      000000BAH   SFRSYM    DATA     BYTE      SPCTL
      000000F8H   SFRSYM    DATA     BYTE      P7
      000000E8H   SFRSYM    DATA     BYTE      P6
      000000C8H   SFRSYM    DATA     BYTE      P5
      000000C0H   SFRSYM    DATA     BYTE      P4
      000000B0H   SFRSYM    DATA     BYTE      P3
      000000A0H   SFRSYM    DATA     BYTE      P2
      00000090H   SFRSYM    DATA     BYTE      P1
      00000080H   SFRSYM    DATA     BYTE      P0

      00FF2952H   BLOCK     CODE     ---       LVL=0
      WR14        REGSYM    ---      INT       spi_n
      R13         REGSYM    ---      BYTE      mode
      000013CEH   SYMBOL    EDATA    INT       mstr
      000013D0H   SYMBOL    EDATA    INT       baud
      00FF2952H   LINE      CODE     ---       #39
      00FF295AH   LINE      CODE     ---       #47
      00FF296CH   LINE      CODE     ---       #50
      00FF296CH   LINE      CODE     ---       #51
      00FF2975H   LINE      CODE     ---       #52
      00FF297EH   LINE      CODE     ---       #53
      00FF2982H   LINE      CODE     ---       #54
      00FF2984H   LINE      CODE     ---       #55
      00FF2984H   LINE      CODE     ---       #56
      00FF298DH   LINE      CODE     ---       #57
L251 LINKER/LOCATER V4.66.93.0                                                        05/01/2022  09:46:42  PAGE 42


      00FF2996H   LINE      CODE     ---       #58
      00FF299AH   LINE      CODE     ---       #59
      00FF299CH   LINE      CODE     ---       #60
      00FF299CH   LINE      CODE     ---       #61
      00FF29A5H   LINE      CODE     ---       #62
      00FF29AEH   LINE      CODE     ---       #63
      00FF29B2H   LINE      CODE     ---       #64
      00FF29B4H   LINE      CODE     ---       #65
      00FF29B4H   LINE      CODE     ---       #66
      00FF29BDH   LINE      CODE     ---       #67
      00FF29C6H   LINE      CODE     ---       #68
      00FF29CFH   LINE      CODE     ---       #69
      00FF29CFH   LINE      CODE     ---       #70
      00FF29CFH   LINE      CODE     ---       #72
      00FF29D2H   LINE      CODE     ---       #73
      00FF29E4H   LINE      CODE     ---       #75
      00FF29E4H   LINE      CODE     ---       #76
      00FF29E8H   LINE      CODE     ---       #77
      00FF29EAH   LINE      CODE     ---       #78
      00FF29EAH   LINE      CODE     ---       #79
      00FF29EDH   LINE      CODE     ---       #80
      00FF29EFH   LINE      CODE     ---       #81
      00FF29EFH   LINE      CODE     ---       #82
      00FF29F2H   LINE      CODE     ---       #83
      00FF29F4H   LINE      CODE     ---       #84
      00FF29F4H   LINE      CODE     ---       #85
      00FF29F7H   LINE      CODE     ---       #86
      00FF29F7H   LINE      CODE     ---       #87
      00FF29F7H   LINE      CODE     ---       #89
      00FF29FAH   LINE      CODE     ---       #90
      00FF2A06H   LINE      CODE     ---       #92
      00FF2A06H   LINE      CODE     ---       #94
      00FF2A06H   LINE      CODE     ---       #95
      00FF2A06H   LINE      CODE     ---       #96
      00FF2A09H   LINE      CODE     ---       #97
      00FF2A0BH   LINE      CODE     ---       #98
      00FF2A0BH   LINE      CODE     ---       #99
      00FF2A0EH   LINE      CODE     ---       #100
      00FF2A10H   LINE      CODE     ---       #101
      00FF2A10H   LINE      CODE     ---       #102
      00FF2A13H   LINE      CODE     ---       #103
      00FF2A13H   LINE      CODE     ---       #104
      00FF2A13H   LINE      CODE     ---       #107
      00FF2A1BH   LINE      CODE     ---       #109
      00FF2A23H   LINE      CODE     ---       #111
      00FF2A26H   LINE      CODE     ---       #112
      00FF2A29H   LINE      CODE     ---       #113
      00FF2A29H   LINE      CODE     ---       #117
      00FF2A29H   LINE      CODE     ---       #118
      00FF2A2CH   LINE      CODE     ---       #119
      ---         BLOCKEND  ---      ---       LVL=0

      00FF3B84H   BLOCK     CODE     ---       LVL=0
      R11         REGSYM    ---      BYTE      dat
      00FF3B84H   LINE      CODE     ---       #129
      00FF3B84H   LINE      CODE     ---       #131
      00FF3B87H   LINE      CODE     ---       #132
      00FF3B8CH   LINE      CODE     ---       #133
      00FF3B8FH   LINE      CODE     ---       #134
      00FF3B91H   LINE      CODE     ---       #135
      ---         BLOCKEND  ---      ---       LVL=0
      WR14        REGSYM    ---      INT       spi_n
      R7          REGSYM    ---      BYTE      mode

      ---         MODULE    ---      ---       zf_tim
L251 LINKER/LOCATER V4.66.93.0                                                        05/01/2022  09:46:42  PAGE 43


      00FF373EH   PUBLIC    CODE     ---       ctimer_count_read
      00FF3338H   PUBLIC    CODE     ---       pit_timer_ms
      00FF378BH   PUBLIC    CODE     ---       ctimer_count_init
      00FF369FH   PUBLIC    CODE     ---       ctimer_count_clean
      000000D0H   SFRSYM    DATA     BYTE      PSW
      000000DBH   SFRSYM    DATA     BYTE      T4T3M
      00000088H.6 SFRSYM    DATA     BIT       TR1
      00000088H.4 SFRSYM    DATA     BIT       TR0
      000000CAH   SFRSYM    DATA     BYTE      T4L
      000000CCH   SFRSYM    DATA     BYTE      T3L
      000000CEH   SFRSYM    DATA     BYTE      T2L
      0000008BH   SFRSYM    DATA     BYTE      TL1
      0000008AH   SFRSYM    DATA     BYTE      TL0
      000000C9H   SFRSYM    DATA     BYTE      T4H
      000000CBH   SFRSYM    DATA     BYTE      T3H
      000000CDH   SFRSYM    DATA     BYTE      T2H
      0000008DH   SFRSYM    DATA     BYTE      TH1
      0000008CH   SFRSYM    DATA     BYTE      TH0
      000000A8H.3 SFRSYM    DATA     BIT       ET1
      000000A8H.1 SFRSYM    DATA     BIT       ET0
      00000093H   SFRSYM    DATA     BYTE      AUXR
      000000E7H   SFRSYM    DATA     BYTE      IE2
      00000088H   SFRSYM    DATA     BYTE      TCON
      00000089H   SFRSYM    DATA     BYTE      TMOD
      00000098H   SFRSYM    DATA     BYTE      SCON
      000000B8H   SFRSYM    DATA     BYTE      IP
      000000A8H   SFRSYM    DATA     BYTE      IE
      000000F8H   SFRSYM    DATA     BYTE      P7
      000000E8H   SFRSYM    DATA     BYTE      P6
      000000C8H   SFRSYM    DATA     BYTE      P5
      000000C0H   SFRSYM    DATA     BYTE      P4
      000000B0H   SFRSYM    DATA     BYTE      P3
      000000A0H   SFRSYM    DATA     BYTE      P2
      00000090H   SFRSYM    DATA     BYTE      P1
      00000080H   SFRSYM    DATA     BYTE      P0

      00FF378BH   BLOCK     CODE     ---       LVL=0
      WR6         REGSYM    ---      INT       tim_n
      00FF378BH   LINE      CODE     ---       #39
      00FF378BH   LINE      CODE     ---       #42
      00FF379FH   LINE      CODE     ---       #44
      00FF379FH   LINE      CODE     ---       #46
      00FF37A2H   LINE      CODE     ---       #47
      00FF37A5H   LINE      CODE     ---       #48
      00FF37A8H   LINE      CODE     ---       #49
      00FF37AAH   LINE      CODE     ---       #50
      00FF37ABH   LINE      CODE     ---       #53
      00FF37ABH   LINE      CODE     ---       #55
      00FF37AEH   LINE      CODE     ---       #56
      00FF37B1H   LINE      CODE     ---       #57
      00FF37B4H   LINE      CODE     ---       #58
      00FF37B6H   LINE      CODE     ---       #59
      00FF37B7H   LINE      CODE     ---       #62
      00FF37B7H   LINE      CODE     ---       #64
      00FF37BAH   LINE      CODE     ---       #65
      00FF37BDH   LINE      CODE     ---       #66
      00FF37C0H   LINE      CODE     ---       #67
      00FF37C1H   LINE      CODE     ---       #70
      00FF37C1H   LINE      CODE     ---       #72
      00FF37C4H   LINE      CODE     ---       #73
      00FF37C7H   LINE      CODE     ---       #74
      00FF37CAH   LINE      CODE     ---       #75
      00FF37CBH   LINE      CODE     ---       #78
      00FF37CBH   LINE      CODE     ---       #80
      00FF37CEH   LINE      CODE     ---       #81
L251 LINKER/LOCATER V4.66.93.0                                                        05/01/2022  09:46:42  PAGE 44


      00FF37D1H   LINE      CODE     ---       #82
      00FF37D4H   LINE      CODE     ---       #83
      00FF37D4H   LINE      CODE     ---       #86
      00FF37D4H   LINE      CODE     ---       #87
      ---         BLOCKEND  ---      ---       LVL=0

      00FF373EH   BLOCK     CODE     ---       LVL=0
      WR4         REGSYM    ---      INT       tim_n
      00FF3740H   BLOCK     CODE     NEAR LAB  LVL=1
      WR6         REGSYM    ---      WORD      dat
      ---         BLOCKEND  ---      ---       LVL=1
      00FF373EH   LINE      CODE     ---       #95
      00FF3740H   LINE      CODE     ---       #96
      00FF3740H   LINE      CODE     ---       #97
      00FF3742H   LINE      CODE     ---       #99
      00FF3756H   LINE      CODE     ---       #101
      00FF3756H   LINE      CODE     ---       #103
      00FF375CH   LINE      CODE     ---       #104
      00FF375EH   LINE      CODE     ---       #105
      00FF3760H   LINE      CODE     ---       #107
      00FF3760H   LINE      CODE     ---       #109
      00FF3766H   LINE      CODE     ---       #110
      00FF3768H   LINE      CODE     ---       #111
      00FF376AH   LINE      CODE     ---       #113
      00FF376AH   LINE      CODE     ---       #115
      00FF3770H   LINE      CODE     ---       #116
      00FF3772H   LINE      CODE     ---       #117
      00FF3774H   LINE      CODE     ---       #119
      00FF3774H   LINE      CODE     ---       #121
      00FF377AH   LINE      CODE     ---       #122
      00FF377CH   LINE      CODE     ---       #123
      00FF377EH   LINE      CODE     ---       #125
      00FF377EH   LINE      CODE     ---       #127
      00FF3784H   LINE      CODE     ---       #128
      00FF378AH   LINE      CODE     ---       #129
      00FF378AH   LINE      CODE     ---       #132
      00FF378AH   LINE      CODE     ---       #133
      00FF378AH   LINE      CODE     ---       #134
      ---         BLOCKEND  ---      ---       LVL=0

      00FF369FH   BLOCK     CODE     ---       LVL=0
      WR6         REGSYM    ---      INT       tim_n
      00FF369FH   LINE      CODE     ---       #143
      00FF369FH   LINE      CODE     ---       #145
      00FF36B3H   LINE      CODE     ---       #147
      00FF36B3H   LINE      CODE     ---       #149
      00FF36B5H   LINE      CODE     ---       #150
      00FF36B8H   LINE      CODE     ---       #151
      00FF36BBH   LINE      CODE     ---       #152
      00FF36BDH   LINE      CODE     ---       #153
      00FF36BEH   LINE      CODE     ---       #155
      00FF36BEH   LINE      CODE     ---       #157
      00FF36C0H   LINE      CODE     ---       #158
      00FF36C3H   LINE      CODE     ---       #159
      00FF36C6H   LINE      CODE     ---       #160
      00FF36C8H   LINE      CODE     ---       #161
      00FF36C9H   LINE      CODE     ---       #163
      00FF36C9H   LINE      CODE     ---       #165
      00FF36CCH   LINE      CODE     ---       #166
      00FF36CFH   LINE      CODE     ---       #167
      00FF36D2H   LINE      CODE     ---       #168
      00FF36D5H   LINE      CODE     ---       #169
      00FF36D6H   LINE      CODE     ---       #171
      00FF36D6H   LINE      CODE     ---       #173
      00FF36D9H   LINE      CODE     ---       #174
L251 LINKER/LOCATER V4.66.93.0                                                        05/01/2022  09:46:42  PAGE 45


      00FF36DCH   LINE      CODE     ---       #175
      00FF36DFH   LINE      CODE     ---       #176
      00FF36E2H   LINE      CODE     ---       #177
      00FF36E3H   LINE      CODE     ---       #179
      00FF36E3H   LINE      CODE     ---       #181
      00FF36E6H   LINE      CODE     ---       #182
      00FF36E9H   LINE      CODE     ---       #183
      00FF36ECH   LINE      CODE     ---       #184
      00FF36EFH   LINE      CODE     ---       #185
      00FF36EFH   LINE      CODE     ---       #187
      00FF36EFH   LINE      CODE     ---       #188
      ---         BLOCKEND  ---      ---       LVL=0

      00FF3338H   BLOCK     CODE     ---       LVL=0
      WR30        REGSYM    ---      INT       tim_n
      WR28        REGSYM    ---      WORD      time_ms
      00FF333AH   BLOCK     CODE     NEAR LAB  LVL=1
      WR28        REGSYM    ---      WORD      temp
      ---         BLOCKEND  ---      ---       LVL=1
      00FF3338H   LINE      CODE     ---       #198
      00FF333AH   LINE      CODE     ---       #199
      00FF333AH   LINE      CODE     ---       #201
      00FF3357H   LINE      CODE     ---       #203
      00FF335BH   LINE      CODE     ---       #205
      00FF335FH   LINE      CODE     ---       #206
      00FF3365H   LINE      CODE     ---       #207
      00FF3369H   LINE      CODE     ---       #208
      00FF336BH   LINE      CODE     ---       #209
      00FF336DH   LINE      CODE     ---       #210
      00FF336EH   LINE      CODE     ---       #211
      00FF3374H   LINE      CODE     ---       #213
      00FF3378H   LINE      CODE     ---       #214
      00FF337EH   LINE      CODE     ---       #215
      00FF3382H   LINE      CODE     ---       #216
      00FF3384H   LINE      CODE     ---       #217
      00FF3386H   LINE      CODE     ---       #218
      00FF3387H   LINE      CODE     ---       #219
      00FF338DH   LINE      CODE     ---       #221
      00FF3393H   LINE      CODE     ---       #222
      00FF3397H   LINE      CODE     ---       #223
      00FF339AH   LINE      CODE     ---       #224
      00FF339DH   LINE      CODE     ---       #225
      00FF339EH   LINE      CODE     ---       #226
      00FF33A4H   LINE      CODE     ---       #228
      00FF33AAH   LINE      CODE     ---       #229
      00FF33AEH   LINE      CODE     ---       #230
      00FF33B1H   LINE      CODE     ---       #231
      00FF33B4H   LINE      CODE     ---       #232
      00FF33B5H   LINE      CODE     ---       #233
      00FF33BBH   LINE      CODE     ---       #235
      00FF33C1H   LINE      CODE     ---       #236
      00FF33C5H   LINE      CODE     ---       #237
      00FF33C8H   LINE      CODE     ---       #238
      00FF33CBH   LINE      CODE     ---       #239
      ---         BLOCKEND  ---      ---       LVL=0

      ---         MODULE    ---      ---       zf_uart
      00FF2360H   PUBLIC    CODE     ---       uart_init
      000012E5H   PUBLIC    EDATA    ---       uart1_rx_buff
      00001349H   PUBLIC    EDATA    ---       uart1_tx_buff
      000013ADH   PUBLIC    EDATA    ---       busy
      000013C8H   PUBLIC    EDATA    ---       ?uart_init?BYTE
      000000D0H   SFRSYM    DATA     BYTE      PSW
      000000BCH   SFRSYM    DATA     BYTE      S4CON
      000000E5H   SFRSYM    DATA     BYTE      S3CON
L251 LINKER/LOCATER V4.66.93.0                                                        05/01/2022  09:46:42  PAGE 46


      000000E3H   SFRSYM    DATA     BYTE      S2CON
      000000BDH   SFRSYM    DATA     BYTE      S4BUF
      000000E6H   SFRSYM    DATA     BYTE      S3BUF
      000000E4H   SFRSYM    DATA     BYTE      S2BUF
      000000DBH   SFRSYM    DATA     BYTE      T4T3M
      00000088H.6 SFRSYM    DATA     BIT       TR1
      000000CAH   SFRSYM    DATA     BYTE      T4L
      000000CCH   SFRSYM    DATA     BYTE      T3L
      000000CEH   SFRSYM    DATA     BYTE      T2L
      0000008BH   SFRSYM    DATA     BYTE      TL1
      000000C9H   SFRSYM    DATA     BYTE      T4H
      000000CBH   SFRSYM    DATA     BYTE      T3H
      000000CDH   SFRSYM    DATA     BYTE      T2H
      0000008DH   SFRSYM    DATA     BYTE      TH1
      00000093H   SFRSYM    DATA     BYTE      AUXR
      000000E7H   SFRSYM    DATA     BYTE      IE2
      00000088H   SFRSYM    DATA     BYTE      TCON
      00000089H   SFRSYM    DATA     BYTE      TMOD
      00000098H   SFRSYM    DATA     BYTE      SCON
      00000099H   SFRSYM    DATA     BYTE      SBUF
      000000B8H   SFRSYM    DATA     BYTE      IP
      000000A8H.4 SFRSYM    DATA     BIT       ES
      000000A8H   SFRSYM    DATA     BYTE      IE
      0000009BH   SFRSYM    DATA     BYTE      P_SW2
      0000009AH   SFRSYM    DATA     BYTE      P_SW1
      000000F8H   SFRSYM    DATA     BYTE      P7
      000000E8H   SFRSYM    DATA     BYTE      P6
      000000C8H   SFRSYM    DATA     BYTE      P5
      000000C0H   SFRSYM    DATA     BYTE      P4
      000000ECH   SFRSYM    DATA     BYTE      P5M1
      000000B0H   SFRSYM    DATA     BYTE      P3
      000000EDH   SFRSYM    DATA     BYTE      P5M0
      000000A0H   SFRSYM    DATA     BYTE      P2
      00000090H   SFRSYM    DATA     BYTE      P1
      00000080H   SFRSYM    DATA     BYTE      P0

      00FF2360H   BLOCK     CODE     ---       LVL=0
      WR24        REGSYM    ---      INT       uart_n
      WR28        REGSYM    ---      INT       uart_rx_pin
      WR30        REGSYM    ---      INT       uart_tx_pin
      000013CEH   SYMBOL    EDATA    DWORD     baud
      WR26        REGSYM    ---      INT       tim_n
      00FF2368H   BLOCK     CODE     NEAR LAB  LVL=1
      WR6         REGSYM    ---      WORD      brt
      ---         BLOCKEND  ---      ---       LVL=1
      00FF2360H   LINE      CODE     ---       #48
      00FF2368H   LINE      CODE     ---       #49
      00FF2368H   LINE      CODE     ---       #52
      00FF238BH   LINE      CODE     ---       #55
      00FF23A9H   LINE      CODE     ---       #57
      00FF23A9H   LINE      CODE     ---       #59
      00FF23AFH   LINE      CODE     ---       #61
      00FF23B2H   LINE      CODE     ---       #62
      00FF23B6H   LINE      CODE     ---       #63
      00FF23BAH   LINE      CODE     ---       #64
      00FF23BEH   LINE      CODE     ---       #65
      00FF23C1H   LINE      CODE     ---       #66
      00FF23C3H   LINE      CODE     ---       #67
      00FF23C8H   LINE      CODE     ---       #68
      00FF23CAH   LINE      CODE     ---       #69
      00FF23D0H   LINE      CODE     ---       #71
      00FF23D3H   LINE      CODE     ---       #72
      00FF23D7H   LINE      CODE     ---       #73
      00FF23DBH   LINE      CODE     ---       #74
      00FF23DEH   LINE      CODE     ---       #75
L251 LINKER/LOCATER V4.66.93.0                                                        05/01/2022  09:46:42  PAGE 47


      00FF23DEH   LINE      CODE     ---       #76
      00FF23E1H   LINE      CODE     ---       #77
      00FF23EBH   LINE      CODE     ---       #79
      00FF23EFH   LINE      CODE     ---       #80
      00FF23F1H   LINE      CODE     ---       #81
      00FF23FDH   LINE      CODE     ---       #83
      00FF2400H   LINE      CODE     ---       #84
      00FF2402H   LINE      CODE     ---       #85
      00FF240EH   LINE      CODE     ---       #87
      00FF2411H   LINE      CODE     ---       #88
      00FF2413H   LINE      CODE     ---       #89
      00FF241FH   LINE      CODE     ---       #91
      00FF2422H   LINE      CODE     ---       #92
      00FF2422H   LINE      CODE     ---       #93
      00FF2427H   LINE      CODE     ---       #94
      00FF2429H   LINE      CODE     ---       #95
      00FF242AH   LINE      CODE     ---       #98
      00FF242AH   LINE      CODE     ---       #100
      00FF2430H   LINE      CODE     ---       #102
      00FF2433H   LINE      CODE     ---       #103
      00FF2437H   LINE      CODE     ---       #104
      00FF243BH   LINE      CODE     ---       #105
      00FF243EH   LINE      CODE     ---       #106
      00FF243EH   LINE      CODE     ---       #108
      00FF2441H   LINE      CODE     ---       #109
      00FF244DH   LINE      CODE     ---       #111
      00FF2451H   LINE      CODE     ---       #112
      00FF2453H   LINE      CODE     ---       #113
      00FF245FH   LINE      CODE     ---       #115
      00FF2462H   LINE      CODE     ---       #116
      00FF2462H   LINE      CODE     ---       #118
      00FF2465H   LINE      CODE     ---       #119
      00FF246AH   LINE      CODE     ---       #120
      00FF246BH   LINE      CODE     ---       #123
      00FF246BH   LINE      CODE     ---       #125
      00FF2471H   LINE      CODE     ---       #127
      00FF2474H   LINE      CODE     ---       #128
      00FF2478H   LINE      CODE     ---       #129
      00FF247CH   LINE      CODE     ---       #130
      00FF247FH   LINE      CODE     ---       #131
      00FF2481H   LINE      CODE     ---       #132
      00FF2487H   LINE      CODE     ---       #134
      00FF248AH   LINE      CODE     ---       #135
      00FF248EH   LINE      CODE     ---       #136
      00FF2492H   LINE      CODE     ---       #137
      00FF2495H   LINE      CODE     ---       #138
      00FF2495H   LINE      CODE     ---       #140
      00FF2498H   LINE      CODE     ---       #141
      00FF24A4H   LINE      CODE     ---       #143
      00FF24A8H   LINE      CODE     ---       #144
      00FF24AAH   LINE      CODE     ---       #145
      00FF24B6H   LINE      CODE     ---       #147
      00FF24B9H   LINE      CODE     ---       #148
      00FF24B9H   LINE      CODE     ---       #150
      00FF24BCH   LINE      CODE     ---       #151
      00FF24C1H   LINE      CODE     ---       #152
      00FF24C2H   LINE      CODE     ---       #155
      00FF24C2H   LINE      CODE     ---       #157
      00FF24C8H   LINE      CODE     ---       #159
      00FF24CBH   LINE      CODE     ---       #160
      00FF24CFH   LINE      CODE     ---       #161
      00FF24D3H   LINE      CODE     ---       #162
      00FF24D6H   LINE      CODE     ---       #163
      00FF24D8H   LINE      CODE     ---       #164
      00FF24DEH   LINE      CODE     ---       #166
L251 LINKER/LOCATER V4.66.93.0                                                        05/01/2022  09:46:42  PAGE 48


      00FF24E1H   LINE      CODE     ---       #167
      00FF24E5H   LINE      CODE     ---       #168
      00FF24E9H   LINE      CODE     ---       #169
      00FF24ECH   LINE      CODE     ---       #170
      00FF24ECH   LINE      CODE     ---       #172
      00FF24EFH   LINE      CODE     ---       #173
      00FF24FBH   LINE      CODE     ---       #175
      00FF24FFH   LINE      CODE     ---       #176
      00FF2501H   LINE      CODE     ---       #177
      00FF250DH   LINE      CODE     ---       #179
      00FF2510H   LINE      CODE     ---       #180
      00FF2513H   LINE      CODE     ---       #181
      00FF2516H   LINE      CODE     ---       #182
      00FF2516H   LINE      CODE     ---       #183
      00FF2519H   LINE      CODE     ---       #184
      00FF251EH   LINE      CODE     ---       #185
      00FF251EH   LINE      CODE     ---       #188
      00FF251EH   LINE      CODE     ---       #190
      ---         BLOCKEND  ---      ---       LVL=0
      WR6         REGSYM    ---      INT       uart_n
      R10         REGSYM    ---      BYTE      dat
      REG=3       REGSYM    ---      ---       p
      REG=3       REGSYM    ---      ---       str

      ---         MODULE    ---      ---       SEEKFREE_18TFT
      000000D0H   SFRSYM    DATA     BYTE      PSW
      000000A0H.5 SFRSYM    DATA     BIT       P25
      00000088H   SFRSYM    DATA     BYTE      TCON
      000000A0H.3 SFRSYM    DATA     BIT       P23
      00000098H   SFRSYM    DATA     BYTE      SCON
      000000A0H.2 SFRSYM    DATA     BIT       P22
      000000A0H.1 SFRSYM    DATA     BIT       P21
      000000A0H.0 SFRSYM    DATA     BIT       P20
      000000B8H   SFRSYM    DATA     BYTE      IP
      000000A8H   SFRSYM    DATA     BYTE      IE
      000000F8H   SFRSYM    DATA     BYTE      P7
      000000E8H   SFRSYM    DATA     BYTE      P6
      000000C8H   SFRSYM    DATA     BYTE      P5
      000000C0H   SFRSYM    DATA     BYTE      P4
      000000B0H   SFRSYM    DATA     BYTE      P3
      000000A0H   SFRSYM    DATA     BYTE      P2
      00000090H   SFRSYM    DATA     BYTE      P1
      00000080H   SFRSYM    DATA     BYTE      P0
      R7          REGSYM    ---      BYTE      dat
      R6          REGSYM    ---      BYTE      i
      R7          REGSYM    ---      BYTE      dat
      R6          REGSYM    ---      BYTE      i
      WR4         REGSYM    ---      WORD      dat
      R10         REGSYM    ---      BYTE      i
      WR12        REGSYM    ---      WORD      x_end
      WR14        REGSYM    ---      WORD      y_end
      WR14        REGSYM    ---      INT       color
      R13         REGSYM    ---      BYTE      i
      R12         REGSYM    ---      BYTE      j
      WR2         REGSYM    ---      WORD      x
      WR0         REGSYM    ---      WORD      y
      WR14        REGSYM    ---      WORD      color
      WR12        REGSYM    ---      WORD      x
      WR14        REGSYM    ---      WORD      y
      REG=3       REGSYM    ---      ---       dat
      WR12        REGSYM    ---      WORD      x
      WR14        REGSYM    ---      WORD      y
      WR12        REGSYM    ---      WORD      x
      WR14        REGSYM    ---      WORD      y
      R10         REGSYM    ---      BYTE      dat
L251 LINKER/LOCATER V4.66.93.0                                                        05/01/2022  09:46:42  PAGE 49


      WR12        REGSYM    ---      WORD      x
      WR14        REGSYM    ---      WORD      y
      WR12        REGSYM    ---      WORD      x
      WR14        REGSYM    ---      WORD      y
      WR2         REGSYM    ---      WORD      dat
      WR12        REGSYM    ---      WORD      y
      R15         REGSYM    ---      BYTE      num
      R14         REGSYM    ---      BYTE      length
      DR12        REGSYM    ---      FLOAT     dat
      R7          REGSYM    ---      CHAR      point
      R7          REGSYM    ---      BYTE      dat
      R7          REGSYM    ---      BYTE      dat
      WR4         REGSYM    ---      WORD      dat
      WR12        REGSYM    ---      WORD      x_end
      WR14        REGSYM    ---      WORD      y_end
      WR14        REGSYM    ---      INT       color
      R13         REGSYM    ---      BYTE      i
      R12         REGSYM    ---      BYTE      j
      WR2         REGSYM    ---      WORD      x
      WR0         REGSYM    ---      WORD      y
      WR14        REGSYM    ---      WORD      color
      WR12        REGSYM    ---      WORD      x
      WR14        REGSYM    ---      WORD      y
      REG=3       REGSYM    ---      ---       dat
      WR12        REGSYM    ---      WORD      x
      WR14        REGSYM    ---      WORD      y
      WR12        REGSYM    ---      WORD      x
      WR14        REGSYM    ---      WORD      y
      R10         REGSYM    ---      BYTE      dat
      WR12        REGSYM    ---      WORD      x
      WR14        REGSYM    ---      WORD      y
      WR12        REGSYM    ---      WORD      x
      WR14        REGSYM    ---      WORD      y
      WR2         REGSYM    ---      WORD      dat
      WR12        REGSYM    ---      WORD      y
      R15         REGSYM    ---      BYTE      num
      R14         REGSYM    ---      BYTE      length
      DR12        REGSYM    ---      FLOAT     dat
      R7          REGSYM    ---      CHAR      point
      REG=3       REGSYM    ---      ---       p

      ---         MODULE    ---      ---       SEEKFREE_ABSOLUTE_ENCODER
      000000D0H   SFRSYM    DATA     BYTE      PSW
      000000A0H.7 SFRSYM    DATA     BIT       P27
      000000A0H.6 SFRSYM    DATA     BIT       P26
      000000A0H.5 SFRSYM    DATA     BIT       P25
      000000A0H.4 SFRSYM    DATA     BIT       P24
      00000088H   SFRSYM    DATA     BYTE      TCON
      00000098H   SFRSYM    DATA     BYTE      SCON
      000000A0H.2 SFRSYM    DATA     BIT       P22
      000000B8H   SFRSYM    DATA     BYTE      IP
      000000A8H   SFRSYM    DATA     BYTE      IE
      000000F8H   SFRSYM    DATA     BYTE      P7
      000000E8H   SFRSYM    DATA     BYTE      P6
      000000C8H   SFRSYM    DATA     BYTE      P5
      000000C0H   SFRSYM    DATA     BYTE      P4
      000000B0H   SFRSYM    DATA     BYTE      P3
      000000A0H   SFRSYM    DATA     BYTE      P2
      00000090H   SFRSYM    DATA     BYTE      P1
      00000080H   SFRSYM    DATA     BYTE      P0
      WR6         REGSYM    ---      WORD      x
      R6          REGSYM    ---      BYTE      byte
      R7          REGSYM    ---      BYTE      i
      R7          REGSYM    ---      BYTE      cmd
      R15         REGSYM    ---      BYTE      val
L251 LINKER/LOCATER V4.66.93.0                                                        05/01/2022  09:46:42  PAGE 50


      R7          REGSYM    ---      BYTE      cmd
      REG=3       REGSYM    ---      ---       val
      R7          REGSYM    ---      BYTE      cmd
      R15         REGSYM    ---      BYTE      val
      R14         REGSYM    ---      BYTE      dat
      R7          REGSYM    ---      BYTE      cmd
      REG=3       REGSYM    ---      ---       val
      WR14        REGSYM    ---      WORD      zero_position
      WR14        REGSYM    ---      WORD      angle
      R10         REGSYM    ---      BYTE      byte
      R7          REGSYM    ---      BYTE      cmd
      R15         REGSYM    ---      BYTE      val
      R7          REGSYM    ---      BYTE      cmd
      REG=3       REGSYM    ---      ---       val
      R7          REGSYM    ---      BYTE      cmd
      R15         REGSYM    ---      BYTE      val
      R14         REGSYM    ---      BYTE      dat
      R7          REGSYM    ---      BYTE      cmd
      REG=3       REGSYM    ---      ---       val
      WR14        REGSYM    ---      WORD      zero_position
      WR14        REGSYM    ---      WORD      angle

      ---         MODULE    ---      ---       SEEKFREE_FONT
      00FF00A6H   PUBLIC    CODE     ---       oled_8x16
      00FF0696H   PUBLIC    CODE     ---       tft_ascii
      00FF0C86H   PUBLIC    CODE     ---       oled_6x8
      000000D0H   SFRSYM    DATA     BYTE      PSW
      00000088H   SFRSYM    DATA     BYTE      TCON
      00000098H   SFRSYM    DATA     BYTE      SCON
      000000B8H   SFRSYM    DATA     BYTE      IP
      000000A8H   SFRSYM    DATA     BYTE      IE
      000000F8H   SFRSYM    DATA     BYTE      P7
      000000E8H   SFRSYM    DATA     BYTE      P6
      000000C8H   SFRSYM    DATA     BYTE      P5
      000000C0H   SFRSYM    DATA     BYTE      P4
      000000B0H   SFRSYM    DATA     BYTE      P3
      000000A0H   SFRSYM    DATA     BYTE      P2
      00000090H   SFRSYM    DATA     BYTE      P1
      00000080H   SFRSYM    DATA     BYTE      P0

      ---         MODULE    ---      ---       SEEKFREE_ICM20602
      0000167FH   PUBLIC    EDATA    INT       icm_acc_x
      00001681H   PUBLIC    EDATA    INT       icm_acc_y
      00001683H   PUBLIC    EDATA    INT       icm_acc_z
      00001685H   PUBLIC    EDATA    INT       icm_gyro_x
      00001687H   PUBLIC    EDATA    INT       icm_gyro_y
      00001689H   PUBLIC    EDATA    INT       icm_gyro_z
      000000D0H   SFRSYM    DATA     BYTE      PSW
      000000C0H.3 SFRSYM    DATA     BIT       P43
      000000C0H.2 SFRSYM    DATA     BIT       P42
      00000088H   SFRSYM    DATA     BYTE      TCON
      000000C0H.1 SFRSYM    DATA     BIT       P41
      00000098H   SFRSYM    DATA     BYTE      SCON
      000000C0H.0 SFRSYM    DATA     BIT       P40
      000000B8H   SFRSYM    DATA     BYTE      IP
      000000A8H   SFRSYM    DATA     BYTE      IE
      000000F8H   SFRSYM    DATA     BYTE      P7
      000000E8H   SFRSYM    DATA     BYTE      P6
      000000C8H   SFRSYM    DATA     BYTE      P5
      000000C0H   SFRSYM    DATA     BYTE      P4
      000000B0H   SFRSYM    DATA     BYTE      P3
      000000A0H   SFRSYM    DATA     BYTE      P2
      00000090H   SFRSYM    DATA     BYTE      P1
      00000080H   SFRSYM    DATA     BYTE      P0
      R15         REGSYM    ---      BYTE      dat
L251 LINKER/LOCATER V4.66.93.0                                                        05/01/2022  09:46:42  PAGE 51


      R6          REGSYM    ---      BYTE      byte
      R7          REGSYM    ---      BYTE      i
      R7          REGSYM    ---      BYTE      cmd
      R15         REGSYM    ---      BYTE      val
      R7          REGSYM    ---      BYTE      cmd
      REG=3       REGSYM    ---      ---       val
      R7          REGSYM    ---      BYTE      cmd
      REG=3       REGSYM    ---      ---       val

      ---         MODULE    ---      ---       SEEKFREE_IIC
      000016A1H   PUBLIC    EDATA    BYTE      IIC_ad_main
      000016A2H   PUBLIC    EDATA    BYTE      IIC_num
      000016A3H   PUBLIC    EDATA    BYTE      IIC_ad_sub
      000016A4H   PUBLIC    EDATA    ---       IIC_buf
      000000D0H   SFRSYM    DATA     BYTE      PSW
      00000088H   SFRSYM    DATA     BYTE      TCON
      000000C0H.1 SFRSYM    DATA     BIT       P41
      00000098H   SFRSYM    DATA     BYTE      SCON
      000000C0H.0 SFRSYM    DATA     BIT       P40
      000000B8H   SFRSYM    DATA     BYTE      IP
      000000A8H   SFRSYM    DATA     BYTE      IE
      000000F8H   SFRSYM    DATA     BYTE      P7
      000000E8H   SFRSYM    DATA     BYTE      P6
      000000C8H   SFRSYM    DATA     BYTE      P5
      000000C0H   SFRSYM    DATA     BYTE      P4
      000000B0H   SFRSYM    DATA     BYTE      P3
      000000A0H   SFRSYM    DATA     BYTE      P2
      00000090H   SFRSYM    DATA     BYTE      P1
      00000080H   SFRSYM    DATA     BYTE      P0
      WR6         REGSYM    ---      WORD      j
      R15         REGSYM    ---      BYTE      ack_dat
      R15         REGSYM    ---      BYTE      c
      R14         REGSYM    ---      BYTE      i
      R15         REGSYM    ---      BYTE      ack_x
      R13         REGSYM    ---      BYTE      i
      R14         REGSYM    ---      BYTE      c
      R13         REGSYM    ---      BYTE      dev_add
      R14         REGSYM    ---      BYTE      reg
      R15         REGSYM    ---      BYTE      dat
      R15         REGSYM    ---      BYTE      dev_add
      R14         REGSYM    ---      BYTE      reg
      WR12        REGSYM    ---      INT       type
      R15         REGSYM    ---      BYTE      dat
      REG=3       REGSYM    ---      ---       dat_add

      ---         MODULE    ---      ---       SEEKFREE_IPS114_SPI
      00FF3B05H   PUBLIC    CODE     ---       ips114_writedata_16bit
      00FF268CH   PUBLIC    CODE     ---       ips114_showfloat
      00FF34EEH   PUBLIC    CODE     ---       ips114_showchar
      00FF2A31H   PUBLIC    CODE     ---       ips114_showint16
      00FF395DH   PUBLIC    CODE     ---       ips114_clear
      00FF36F0H   PUBLIC    CODE     ---       ips114_showstr
      00FF3B9EH   PUBLIC    CODE     ---       ips114_writeIndex
      00FF3BA8H   PUBLIC    CODE     ---       ips114_writeData
      00FF37D5H   PUBLIC    CODE     ---       ips114_set_region
      00FF251FH   PUBLIC    CODE     ---       ips114_init
      000013CAH   PUBLIC    EDATA    BYTE      ?ips114_showfloat?BYTE
      000000D0H   SFRSYM    DATA     BYTE      PSW
      000000A0H.7 SFRSYM    DATA     BIT       P27
      000000A0H.5 SFRSYM    DATA     BIT       P25
      00000088H   SFRSYM    DATA     BYTE      TCON
      000000A0H.3 SFRSYM    DATA     BIT       P23
      00000098H   SFRSYM    DATA     BYTE      SCON
      000000A0H.2 SFRSYM    DATA     BIT       P22
      000000A0H.1 SFRSYM    DATA     BIT       P21
L251 LINKER/LOCATER V4.66.93.0                                                        05/01/2022  09:46:42  PAGE 52


      000000A0H.0 SFRSYM    DATA     BIT       P20
      000000B8H   SFRSYM    DATA     BYTE      IP
      000000A8H   SFRSYM    DATA     BYTE      IE
      000000F8H   SFRSYM    DATA     BYTE      P7
      000000E8H   SFRSYM    DATA     BYTE      P6
      000000C8H   SFRSYM    DATA     BYTE      P5
      000000C0H   SFRSYM    DATA     BYTE      P4
      000000B0H   SFRSYM    DATA     BYTE      P3
      000000A0H   SFRSYM    DATA     BYTE      P2
      00000090H   SFRSYM    DATA     BYTE      P1
      00000080H   SFRSYM    DATA     BYTE      P0
      R7          REGSYM    ---      BYTE      dat
      R6          REGSYM    ---      BYTE      i
      R7          REGSYM    ---      BYTE      dat
      R6          REGSYM    ---      BYTE      i
      WR4         REGSYM    ---      WORD      dat
      R10         REGSYM    ---      BYTE      i
      WR12        REGSYM    ---      WORD      x2
      WR14        REGSYM    ---      WORD      y2
      WR14        REGSYM    ---      WORD      color
      R13         REGSYM    ---      BYTE      i
      WR2         REGSYM    ---      WORD      x
      WR0         REGSYM    ---      WORD      y
      WR14        REGSYM    ---      WORD      color
      WR12        REGSYM    ---      WORD      x
      WR14        REGSYM    ---      WORD      y
      REG=3       REGSYM    ---      ---       dat
      WR12        REGSYM    ---      WORD      x
      WR14        REGSYM    ---      WORD      y
      WR12        REGSYM    ---      WORD      x
      WR14        REGSYM    ---      WORD      y
      R10         REGSYM    ---      BYTE      dat
      WR12        REGSYM    ---      WORD      x
      WR14        REGSYM    ---      WORD      y
      WR12        REGSYM    ---      WORD      x
      WR14        REGSYM    ---      WORD      y
      WR2         REGSYM    ---      WORD      dat
      WR12        REGSYM    ---      WORD      y
      R15         REGSYM    ---      BYTE      num
      R14         REGSYM    ---      BYTE      length
      DR12        REGSYM    ---      FLOAT     dat
      R7          REGSYM    ---      CHAR      point

      00FF3B9EH   BLOCK     CODE     ---       LVL=0
      R7          REGSYM    ---      BYTE      dat
      00FF3B9EH   LINE      CODE     ---       #593
      00FF3B9EH   LINE      CODE     ---       #595
      00FF3BA0H   LINE      CODE     ---       #596
      00FF3BA2H   LINE      CODE     ---       #598
      00FF3BA5H   LINE      CODE     ---       #599
      00FF3BA7H   LINE      CODE     ---       #600
      ---         BLOCKEND  ---      ---       LVL=0

      00FF3BA8H   BLOCK     CODE     ---       LVL=0
      R7          REGSYM    ---      BYTE      dat
      00FF3BA8H   LINE      CODE     ---       #609
      00FF3BA8H   LINE      CODE     ---       #611
      00FF3BAAH   LINE      CODE     ---       #612
      00FF3BACH   LINE      CODE     ---       #614
      00FF3BAFH   LINE      CODE     ---       #615
      00FF3BB1H   LINE      CODE     ---       #616
      ---         BLOCKEND  ---      ---       LVL=0

      00FF3B05H   BLOCK     CODE     ---       LVL=0
      WR4         REGSYM    ---      WORD      dat
L251 LINKER/LOCATER V4.66.93.0                                                        05/01/2022  09:46:42  PAGE 53


      00FF3B07H   BLOCK     CODE     NEAR LAB  LVL=1
      00001407H   SYMBOL    EDATA    ---       dat1
      ---         BLOCKEND  ---      ---       LVL=1
      00FF3B05H   LINE      CODE     ---       #625
      00FF3B07H   LINE      CODE     ---       #626
      00FF3B07H   LINE      CODE     ---       #628
      00FF3B0BH   LINE      CODE     ---       #629
      00FF3B0FH   LINE      CODE     ---       #630
      00FF3B11H   LINE      CODE     ---       #631
      00FF3B13H   LINE      CODE     ---       #632
      00FF3B1AH   LINE      CODE     ---       #633
      00FF3B21H   LINE      CODE     ---       #634
      00FF3B23H   LINE      CODE     ---       #635
      ---         BLOCKEND  ---      ---       LVL=0

      00FF251FH   BLOCK     CODE     ---       LVL=0
      00FF251FH   LINE      CODE     ---       #643
      00FF251FH   LINE      CODE     ---       #645
      00FF253DH   LINE      CODE     ---       #647
      00FF253FH   LINE      CODE     ---       #648
      00FF2541H   LINE      CODE     ---       #649
      00FF2543H   LINE      CODE     ---       #651
      00FF254AH   LINE      CODE     ---       #653
      00FF254CH   LINE      CODE     ---       #654
      00FF2553H   LINE      CODE     ---       #656
      00FF2558H   LINE      CODE     ---       #665
      00FF255DH   LINE      CODE     ---       #668
      00FF2562H   LINE      CODE     ---       #669
      00FF2567H   LINE      CODE     ---       #671
      00FF256CH   LINE      CODE     ---       #672
      00FF2571H   LINE      CODE     ---       #673
      00FF2576H   LINE      CODE     ---       #674
      00FF257AH   LINE      CODE     ---       #675
      00FF257FH   LINE      CODE     ---       #676
      00FF2584H   LINE      CODE     ---       #678
      00FF2589H   LINE      CODE     ---       #679
      00FF258EH   LINE      CODE     ---       #681
      00FF2593H   LINE      CODE     ---       #682
      00FF2598H   LINE      CODE     ---       #684
      00FF259DH   LINE      CODE     ---       #685
      00FF25A2H   LINE      CODE     ---       #687
      00FF25A7H   LINE      CODE     ---       #688
      00FF25ACH   LINE      CODE     ---       #690
      00FF25B1H   LINE      CODE     ---       #691
      00FF25B6H   LINE      CODE     ---       #693
      00FF25BBH   LINE      CODE     ---       #694
      00FF25C0H   LINE      CODE     ---       #696
      00FF25C5H   LINE      CODE     ---       #697
      00FF25CAH   LINE      CODE     ---       #699
      00FF25CFH   LINE      CODE     ---       #700
      00FF25D4H   LINE      CODE     ---       #701
      00FF25D9H   LINE      CODE     ---       #703
      00FF25DEH   LINE      CODE     ---       #704
      00FF25E3H   LINE      CODE     ---       #705
      00FF25E8H   LINE      CODE     ---       #706
      00FF25EDH   LINE      CODE     ---       #707
      00FF25F2H   LINE      CODE     ---       #708
      00FF25F7H   LINE      CODE     ---       #709
      00FF25FCH   LINE      CODE     ---       #710
      00FF2601H   LINE      CODE     ---       #711
      00FF2606H   LINE      CODE     ---       #712
      00FF260BH   LINE      CODE     ---       #713
      00FF2610H   LINE      CODE     ---       #714
      00FF2615H   LINE      CODE     ---       #715
      00FF261AH   LINE      CODE     ---       #716
L251 LINKER/LOCATER V4.66.93.0                                                        05/01/2022  09:46:42  PAGE 54


      00FF261FH   LINE      CODE     ---       #717
      00FF2624H   LINE      CODE     ---       #719
      00FF2629H   LINE      CODE     ---       #720
      00FF262EH   LINE      CODE     ---       #721
      00FF2633H   LINE      CODE     ---       #722
      00FF2638H   LINE      CODE     ---       #723
      00FF263DH   LINE      CODE     ---       #724
      00FF2642H   LINE      CODE     ---       #725
      00FF2647H   LINE      CODE     ---       #726
      00FF264CH   LINE      CODE     ---       #727
      00FF2651H   LINE      CODE     ---       #728
      00FF2656H   LINE      CODE     ---       #729
      00FF265BH   LINE      CODE     ---       #730
      00FF2660H   LINE      CODE     ---       #731
      00FF2665H   LINE      CODE     ---       #732
      00FF266AH   LINE      CODE     ---       #733
      00FF266FH   LINE      CODE     ---       #735
      00FF2674H   LINE      CODE     ---       #737
      00FF2679H   LINE      CODE     ---       #738
      00FF2680H   LINE      CODE     ---       #740
      00FF2685H   LINE      CODE     ---       #741
      ---         BLOCKEND  ---      ---       LVL=0

      00FF37D5H   BLOCK     CODE     ---       LVL=0
      00001403H   SYMBOL    EDATA    WORD      x1
      00001405H   SYMBOL    EDATA    WORD      y1
      WR12        REGSYM    ---      WORD      x2
      WR14        REGSYM    ---      WORD      y2
      00FF37D5H   LINE      CODE     ---       #746
      00FF37E3H   LINE      CODE     ---       #780
      00FF37E8H   LINE      CODE     ---       #781
      00FF37F3H   LINE      CODE     ---       #782
      00FF37FCH   LINE      CODE     ---       #783
      00FF3801H   LINE      CODE     ---       #784
      00FF380CH   LINE      CODE     ---       #785
      00FF3815H   LINE      CODE     ---       #786
      00FF381AH   LINE      CODE     ---       #789
      ---         BLOCKEND  ---      ---       LVL=0

      00FF395DH   BLOCK     CODE     ---       LVL=0
      WR14        REGSYM    ---      WORD      color
      00FF3963H   BLOCK     CODE     NEAR LAB  LVL=1
      R13         REGSYM    ---      BYTE      i
      000013CEH   SYMBOL    EDATA    WORD      j
      ---         BLOCKEND  ---      ---       LVL=1
      00FF395DH   LINE      CODE     ---       #798
      00FF3963H   LINE      CODE     ---       #799
      00FF3963H   LINE      CODE     ---       #801
      00FF3972H   LINE      CODE     ---       #802
      00FF3975H   LINE      CODE     ---       #804
      00FF397BH   LINE      CODE     ---       #806
      00FF3980H   LINE      CODE     ---       #807
      00FF3990H   LINE      CODE     ---       #808
      00FF3994H   LINE      CODE     ---       #809
      ---         BLOCKEND  ---      ---       LVL=0
      WR2         REGSYM    ---      WORD      x
      WR0         REGSYM    ---      WORD      y
      WR14        REGSYM    ---      WORD      color

      00FF34EEH   BLOCK     CODE     ---       LVL=0
      WR12        REGSYM    ---      WORD      x
      WR14        REGSYM    ---      WORD      y
      000013FFH   SYMBOL    EDATA    CHAR      dat
      00FF34F8H   BLOCK     CODE     NEAR LAB  LVL=1
      00001400H   SYMBOL    EDATA    BYTE      i
L251 LINKER/LOCATER V4.66.93.0                                                        05/01/2022  09:46:42  PAGE 55


      00001401H   SYMBOL    EDATA    BYTE      j
      00001402H   SYMBOL    EDATA    BYTE      temp
      ---         BLOCKEND  ---      ---       LVL=1
      00FF34EEH   LINE      CODE     ---       #837
      00FF34F8H   LINE      CODE     ---       #838
      00FF34F8H   LINE      CODE     ---       #842
      00FF34FDH   LINE      CODE     ---       #844
      00FF3512H   LINE      CODE     ---       #845
      00FF3538H   LINE      CODE     ---       #846
      00FF353DH   LINE      CODE     ---       #848
      00FF3544H   LINE      CODE     ---       #850
      00FF3548H   LINE      CODE     ---       #851
      00FF354AH   LINE      CODE     ---       #852
      00FF3551H   LINE      CODE     ---       #853
      00FF355BH   LINE      CODE     ---       #854
      00FF3567H   LINE      CODE     ---       #855
      00FF3579H   LINE      CODE     ---       #856
      ---         BLOCKEND  ---      ---       LVL=0

      00FF36F0H   BLOCK     CODE     ---       LVL=0
      000013F9H   SYMBOL    EDATA    WORD      x
      000013FBH   SYMBOL    EDATA    WORD      y
      REG=3       REGSYM    ---      ---       dat
      00FF36FCH   BLOCK     CODE     NEAR LAB  LVL=1
      000013FDH   SYMBOL    EDATA    WORD      j
      ---         BLOCKEND  ---      ---       LVL=1
      00FF36F0H   LINE      CODE     ---       #867
      00FF36FCH   LINE      CODE     ---       #868
      00FF36FCH   LINE      CODE     ---       #871
      00FF36FEH   LINE      CODE     ---       #872
      00FF3700H   LINE      CODE     ---       #874
      00FF3726H   LINE      CODE     ---       #875
      00FF3730H   LINE      CODE     ---       #876
      00FF373BH   LINE      CODE     ---       #877
      ---         BLOCKEND  ---      ---       LVL=0
      WR12        REGSYM    ---      WORD      x
      WR14        REGSYM    ---      WORD      y
      WR12        REGSYM    ---      WORD      x
      WR14        REGSYM    ---      WORD      y
      R10         REGSYM    ---      BYTE      dat

      00FF2A31H   BLOCK     CODE     ---       LVL=0
      WR12        REGSYM    ---      WORD      x
      WR14        REGSYM    ---      WORD      y
      000013CEH   SYMBOL    EDATA    INT       dat
      00FF2A3BH   BLOCK     CODE     NEAR LAB  LVL=1
      000013D0H   SYMBOL    EDATA    ---       a
      000013D5H   SYMBOL    EDATA    BYTE      i
      ---         BLOCKEND  ---      ---       LVL=1
      00FF2A31H   LINE      CODE     ---       #945
      00FF2A3BH   LINE      CODE     ---       #946
      00FF2A3BH   LINE      CODE     ---       #949
      00FF2A45H   LINE      CODE     ---       #951
      00FF2A56H   LINE      CODE     ---       #952
      00FF2A60H   LINE      CODE     ---       #953
      00FF2A62H   LINE      CODE     ---       #954
      00FF2A73H   LINE      CODE     ---       #956
      00FF2A84H   LINE      CODE     ---       #957
      00FF2A9AH   LINE      CODE     ---       #958
      00FF2AACH   LINE      CODE     ---       #959
      00FF2ABCH   LINE      CODE     ---       #960
      00FF2AC7H   LINE      CODE     ---       #962
      00FF2ACCH   LINE      CODE     ---       #963
      00FF2ACCH   LINE      CODE     ---       #965
      00FF2AF5H   LINE      CODE     ---       #966
L251 LINKER/LOCATER V4.66.93.0                                                        05/01/2022  09:46:42  PAGE 56


      00FF2AFEH   LINE      CODE     ---       #967
      00FF2B07H   LINE      CODE     ---       #968
      ---         BLOCKEND  ---      ---       LVL=0
      WR12        REGSYM    ---      WORD      x
      WR14        REGSYM    ---      WORD      y
      WR2         REGSYM    ---      WORD      dat
      WR12        REGSYM    ---      WORD      y
      R15         REGSYM    ---      BYTE      num
      R14         REGSYM    ---      BYTE      length

      00FF268CH   BLOCK     CODE     ---       LVL=0
      000013CEH   SYMBOL    EDATA    WORD      x
      000013D0H   SYMBOL    EDATA    WORD      y
      DR12        REGSYM    ---      FLOAT     dat
      000013D2H   SYMBOL    EDATA    BYTE      num
      000013D3H   SYMBOL    EDATA    BYTE      pointnum
      00FF269CH   BLOCK     CODE     NEAR LAB  LVL=1
      000013D4H   SYMBOL    EDATA    BYTE      length
      000013D5H   SYMBOL    EDATA    ---       buff
      000013F7H   SYMBOL    EDATA    CHAR      start
      000013F8H   SYMBOL    EDATA    CHAR      end
      R7          REGSYM    ---      CHAR      point
      ---         BLOCKEND  ---      ---       LVL=1
      00FF268CH   LINE      CODE     ---       #1050
      00FF269CH   LINE      CODE     ---       #1051
      00FF269CH   LINE      CODE     ---       #1056
      00FF26ABH   LINE      CODE     ---       #1057
      00FF26BAH   LINE      CODE     ---       #1059
      00FF26DCH   LINE      CODE     ---       #1062
      00FF26F5H   LINE      CODE     ---       #1063
      00FF26FAH   LINE      CODE     ---       #1064
      00FF26FAH   LINE      CODE     ---       #1065
      00FF2704H   LINE      CODE     ---       #1066
      00FF2714H   LINE      CODE     ---       #1067
      00FF2724H   LINE      CODE     ---       #1068
      00FF2729H   LINE      CODE     ---       #1070
      00FF2733H   LINE      CODE     ---       #1071
      00FF273CH   LINE      CODE     ---       #1072
      00FF2745H   LINE      CODE     ---       #1073
      00FF274EH   LINE      CODE     ---       #1075
      00FF275BH   LINE      CODE     ---       #1076
      00FF2767H   LINE      CODE     ---       #1078
      00FF2772H   LINE      CODE     ---       #1080
      00FF2781H   LINE      CODE     ---       #1081
      ---         BLOCKEND  ---      ---       LVL=0

      ---         MODULE    ---      ---       SEEKFREE_MPU6050
      0000168BH   PUBLIC    EDATA    INT       mpu_acc_x
      0000168DH   PUBLIC    EDATA    INT       mpu_acc_y
      0000168FH   PUBLIC    EDATA    INT       mpu_acc_z
      00001691H   PUBLIC    EDATA    INT       mpu_gyro_x
      00001693H   PUBLIC    EDATA    INT       mpu_gyro_y
      00001695H   PUBLIC    EDATA    INT       mpu_gyro_z
      000000D0H   SFRSYM    DATA     BYTE      PSW
      00000088H   SFRSYM    DATA     BYTE      TCON
      00000098H   SFRSYM    DATA     BYTE      SCON
      000000B8H   SFRSYM    DATA     BYTE      IP
      000000A8H   SFRSYM    DATA     BYTE      IE
      000000F8H   SFRSYM    DATA     BYTE      P7
      000000E8H   SFRSYM    DATA     BYTE      P6
      000000C8H   SFRSYM    DATA     BYTE      P5
      000000C0H   SFRSYM    DATA     BYTE      P4
      000000B0H   SFRSYM    DATA     BYTE      P3
      000000A0H   SFRSYM    DATA     BYTE      P2
      00000090H   SFRSYM    DATA     BYTE      P1
L251 LINKER/LOCATER V4.66.93.0                                                        05/01/2022  09:46:42  PAGE 57


      00000080H   SFRSYM    DATA     BYTE      P0

      ---         MODULE    ---      ---       SEEKFREE_OLED
      000000D0H   SFRSYM    DATA     BYTE      PSW
      000000A0H.5 SFRSYM    DATA     BIT       P25
      00000088H   SFRSYM    DATA     BYTE      TCON
      000000A0H.3 SFRSYM    DATA     BIT       P23
      00000098H   SFRSYM    DATA     BYTE      SCON
      000000A0H.2 SFRSYM    DATA     BIT       P22
      000000A0H.1 SFRSYM    DATA     BIT       P21
      000000A0H.0 SFRSYM    DATA     BIT       P20
      000000B8H   SFRSYM    DATA     BYTE      IP
      000000A8H   SFRSYM    DATA     BYTE      IE
      000000F8H   SFRSYM    DATA     BYTE      P7
      000000E8H   SFRSYM    DATA     BYTE      P6
      000000C8H   SFRSYM    DATA     BYTE      P5
      000000C0H   SFRSYM    DATA     BYTE      P4
      000000B0H   SFRSYM    DATA     BYTE      P3
      000000A0H   SFRSYM    DATA     BYTE      P2
      00000090H   SFRSYM    DATA     BYTE      P1
      00000080H   SFRSYM    DATA     BYTE      P0
      R7          REGSYM    ---      BYTE      dat
      R6          REGSYM    ---      BYTE      i
      R7          REGSYM    ---      BYTE      cmd
      R6          REGSYM    ---      BYTE      i
      WR8         REGSYM    ---      WORD      hex
      REG=7       REGSYM    ---      ---       Print
      R5          REGSYM    ---      BYTE      hexcheck
      R10         REGSYM    ---      BYTE      TEMP
      R15         REGSYM    ---      BYTE      x
      R10         REGSYM    ---      BYTE      y
      R15         REGSYM    ---      BYTE      bmp_data
      R14         REGSYM    ---      BYTE      y
      R13         REGSYM    ---      BYTE      x
      R15         REGSYM    ---      BYTE      x
      R14         REGSYM    ---      BYTE      y
      R13         REGSYM    ---      BYTE      data1
      R15         REGSYM    ---      BYTE      x
      R14         REGSYM    ---      BYTE      y
      REG=3       REGSYM    ---      ---       ch
      REG=3       REGSYM    ---      ---       ch
      R14         REGSYM    ---      BYTE      x
      R15         REGSYM    ---      BYTE      y
      WR4         REGSYM    ---      WORD      num
      R15         REGSYM    ---      BYTE      x
      R14         REGSYM    ---      BYTE      y
      WR12        REGSYM    ---      INT       num
      WR12        REGSYM    ---      WORD      y
      R15         REGSYM    ---      BYTE      num
      R14         REGSYM    ---      BYTE      length
      DR12        REGSYM    ---      FLOAT     dat
      R7          REGSYM    ---      CHAR      point
      WR4         REGSYM    ---      WORD      high
      REG=3       REGSYM    ---      ---       p
      REG=3       REGSYM    ---      ---       p
      R7          REGSYM    ---      BYTE      dat
      R7          REGSYM    ---      BYTE      cmd
      WR8         REGSYM    ---      WORD      hex
      REG=7       REGSYM    ---      ---       Print
      R5          REGSYM    ---      BYTE      hexcheck
      R10         REGSYM    ---      BYTE      TEMP
      R15         REGSYM    ---      BYTE      x
      R10         REGSYM    ---      BYTE      y
      R15         REGSYM    ---      BYTE      bmp_data
      R14         REGSYM    ---      BYTE      y
L251 LINKER/LOCATER V4.66.93.0                                                        05/01/2022  09:46:42  PAGE 58


      R13         REGSYM    ---      BYTE      x
      R15         REGSYM    ---      BYTE      x
      R14         REGSYM    ---      BYTE      y
      R13         REGSYM    ---      BYTE      data1
      R15         REGSYM    ---      BYTE      x
      R14         REGSYM    ---      BYTE      y
      REG=3       REGSYM    ---      ---       ch
      REG=3       REGSYM    ---      ---       ch
      R14         REGSYM    ---      BYTE      x
      R15         REGSYM    ---      BYTE      y
      WR4         REGSYM    ---      WORD      num
      R15         REGSYM    ---      BYTE      x
      R14         REGSYM    ---      BYTE      y
      WR12        REGSYM    ---      INT       num
      WR12        REGSYM    ---      WORD      y
      R15         REGSYM    ---      BYTE      num
      R14         REGSYM    ---      BYTE      length
      DR12        REGSYM    ---      FLOAT     dat
      R7          REGSYM    ---      CHAR      point
      WR4         REGSYM    ---      WORD      high
      REG=3       REGSYM    ---      ---       p
      REG=3       REGSYM    ---      ---       p

      ---         MODULE    ---      ---       SEEKFREE_TSL1401
      00FF39D2H   PUBLIC    CODE     ---       ccd_collect2
      00FF3AE4H   PUBLIC    CODE     ---       ccd_init
      00FF3A07H   PUBLIC    CODE     ---       ccd_collect
      000010E3H   PUBLIC    EDATA    BYTE      tsl1401_finish_flag
      000010E4H   PUBLIC    EDATA    ---       ccd_data
      000011E4H   PUBLIC    EDATA    BYTE      tsl1401_finish_flag2
      000011E5H   PUBLIC    EDATA    ---       ccd_data2
      000000D0H   SFRSYM    DATA     BYTE      PSW
      000000C0H.5 SFRSYM    DATA     BIT       P45
      000000C0H.2 SFRSYM    DATA     BIT       P42
      000000C8H.1 SFRSYM    DATA     BIT       P51
      00000088H   SFRSYM    DATA     BYTE      TCON
      000000C8H.0 SFRSYM    DATA     BIT       P50
      00000098H   SFRSYM    DATA     BYTE      SCON
      000000B8H   SFRSYM    DATA     BYTE      IP
      000000A8H   SFRSYM    DATA     BYTE      IE
      000000F8H   SFRSYM    DATA     BYTE      P7
      000000E8H   SFRSYM    DATA     BYTE      P6
      000000C8H   SFRSYM    DATA     BYTE      P5
      000000C0H   SFRSYM    DATA     BYTE      P4
      000000B0H   SFRSYM    DATA     BYTE      P3
      000000A0H   SFRSYM    DATA     BYTE      P2
      00000090H   SFRSYM    DATA     BYTE      P1
      00000080H   SFRSYM    DATA     BYTE      P0

      00FF3AE4H   BLOCK     CODE     ---       LVL=0
      00FF3AE4H   LINE      CODE     ---       #48
      00FF3AE4H   LINE      CODE     ---       #50
      00FF3AEFH   LINE      CODE     ---       #51
      00FF3AFAH   LINE      CODE     ---       #52
      ---         BLOCKEND  ---      ---       LVL=0
      REG=3       REGSYM    ---      ---       dat

      00FF3A07H   BLOCK     CODE     ---       LVL=0
      00FF3A09H   BLOCK     CODE     NEAR LAB  LVL=1
      R15         REGSYM    ---      BYTE      i
      ---         BLOCKEND  ---      ---       LVL=1
      00FF3A07H   LINE      CODE     ---       #86
      00FF3A09H   LINE      CODE     ---       #87
      00FF3A09H   LINE      CODE     ---       #88
      00FF3A09H   LINE      CODE     ---       #90
L251 LINKER/LOCATER V4.66.93.0                                                        05/01/2022  09:46:42  PAGE 59


      00FF3A0BH   LINE      CODE     ---       #91
      00FF3A0DH   LINE      CODE     ---       #92
      00FF3A0FH   LINE      CODE     ---       #93
      00FF3A11H   LINE      CODE     ---       #94
      00FF3A13H   LINE      CODE     ---       #95
      00FF3A15H   LINE      CODE     ---       #97
      00FF3A17H   LINE      CODE     ---       #99
      00FF3A19H   LINE      CODE     ---       #100
      00FF3A2AH   LINE      CODE     ---       #101
      00FF3A2CH   LINE      CODE     ---       #102
      00FF3A33H   LINE      CODE     ---       #103
      00FF3A39H   LINE      CODE     ---       #104
      ---         BLOCKEND  ---      ---       LVL=0

      00FF39D2H   BLOCK     CODE     ---       LVL=0
      00FF39D4H   BLOCK     CODE     NEAR LAB  LVL=1
      R15         REGSYM    ---      BYTE      i
      ---         BLOCKEND  ---      ---       LVL=1
      00FF39D2H   LINE      CODE     ---       #106
      00FF39D4H   LINE      CODE     ---       #107
      00FF39D4H   LINE      CODE     ---       #108
      00FF39D4H   LINE      CODE     ---       #110
      00FF39D6H   LINE      CODE     ---       #111
      00FF39D8H   LINE      CODE     ---       #112
      00FF39DAH   LINE      CODE     ---       #113
      00FF39DCH   LINE      CODE     ---       #114
      00FF39DEH   LINE      CODE     ---       #115
      00FF39E0H   LINE      CODE     ---       #117
      00FF39E2H   LINE      CODE     ---       #119
      00FF39E4H   LINE      CODE     ---       #120
      00FF39F5H   LINE      CODE     ---       #121
      00FF39F7H   LINE      CODE     ---       #122
      00FF39FEH   LINE      CODE     ---       #123
      00FF3A04H   LINE      CODE     ---       #124
      ---         BLOCKEND  ---      ---       LVL=0

      ---         MODULE    ---      ---       SEEKFREE_VIRSCO
      00001697H   PUBLIC    EDATA    ---       virtual_scope_data
      000000D0H   SFRSYM    DATA     BYTE      PSW
      00000088H   SFRSYM    DATA     BYTE      TCON
      00000098H   SFRSYM    DATA     BYTE      SCON
      000000B8H   SFRSYM    DATA     BYTE      IP
      000000A8H   SFRSYM    DATA     BYTE      IE
      000000F8H   SFRSYM    DATA     BYTE      P7
      000000E8H   SFRSYM    DATA     BYTE      P6
      000000C8H   SFRSYM    DATA     BYTE      P5
      000000C0H   SFRSYM    DATA     BYTE      P4
      000000B0H   SFRSYM    DATA     BYTE      P3
      000000A0H   SFRSYM    DATA     BYTE      P2
      00000090H   SFRSYM    DATA     BYTE      P1
      00000080H   SFRSYM    DATA     BYTE      P0
      REG=7       REGSYM    ---      ---       Buf
      R10         REGSYM    ---      BYTE      CRC_CNT
      WR6         REGSYM    ---      WORD      CRC_Temp
      R5          REGSYM    ---      BYTE      i
      R4          REGSYM    ---      BYTE      j
      WR0         REGSYM    ---      INT       data1
      WR30        REGSYM    ---      INT       data2
      WR8         REGSYM    ---      INT       data3
      WR10        REGSYM    ---      INT       data4
      WR6         REGSYM    ---      WORD      CRC16

      ---         MODULE    ---      ---       SEEKFREE_WIRELESS
      00FF0086H   PUBLIC    CODE     ---       wireless_uart_callback
      000000D0H   SFRSYM    DATA     BYTE      PSW
L251 LINKER/LOCATER V4.66.93.0                                                        05/01/2022  09:46:42  PAGE 60


      000000BDH   SFRSYM    DATA     BYTE      S4BUF
      00000080H.7 SFRSYM    DATA     BIT       P07
      00000088H   SFRSYM    DATA     BYTE      TCON
      00000098H   SFRSYM    DATA     BYTE      SCON
      000000B8H   SFRSYM    DATA     BYTE      IP
      000000A8H   SFRSYM    DATA     BYTE      IE
      000000F8H   SFRSYM    DATA     BYTE      P7
      000000E8H   SFRSYM    DATA     BYTE      P6
      000000C8H   SFRSYM    DATA     BYTE      P5
      000000C0H   SFRSYM    DATA     BYTE      P4
      000000B0H   SFRSYM    DATA     BYTE      P3
      000000A0H   SFRSYM    DATA     BYTE      P2
      00000090H   SFRSYM    DATA     BYTE      P1
      00000080H   SFRSYM    DATA     BYTE      P0

      00FF0086H   BLOCK     CODE     ---       LVL=0
      00FF0086H   LINE      CODE     ---       #42
      00FF0086H   LINE      CODE     ---       #43
      00FF0086H   LINE      CODE     ---       #44
      00FF0088H   LINE      CODE     ---       #46
      ---         BLOCKEND  ---      ---       LVL=0
      REG=3       REGSYM    ---      ---       buff

      ---         MODULE    ---      ---       SEEKFREE_AT24C02
      000000D0H   SFRSYM    DATA     BYTE      PSW
      00000088H   SFRSYM    DATA     BYTE      TCON
      00000098H   SFRSYM    DATA     BYTE      SCON
      000000B8H   SFRSYM    DATA     BYTE      IP
      000000A8H   SFRSYM    DATA     BYTE      IE
      000000F8H   SFRSYM    DATA     BYTE      P7
      000000E8H   SFRSYM    DATA     BYTE      P6
      000000C8H   SFRSYM    DATA     BYTE      P5
      000000C0H   SFRSYM    DATA     BYTE      P4
      000000B0H   SFRSYM    DATA     BYTE      P3
      000000A0H   SFRSYM    DATA     BYTE      P2
      00000090H   SFRSYM    DATA     BYTE      P1
      00000080H   SFRSYM    DATA     BYTE      P0
      R14         REGSYM    ---      BYTE      byte_reg
      R15         REGSYM    ---      BYTE      dat
      R15         REGSYM    ---      BYTE      byte_reg
      REG=3       REGSYM    ---      ---       dat_add
      REG=3       REGSYM    ---      ---       dat_add

      ---         MODULE    ---      ---       SEEKFREE_BLUETOOTH_CH9141
      00FF3861H   PUBLIC    CODE     ---       fifo_head_offset
      00FF0026H   PUBLIC    CODE     ---       bluetooth_ch9141_uart_callback
      00FF2784H   PUBLIC    CODE     ---       fifo_write_buffer
      00001459H   PUBLIC    EDATA    BYTE      bluetooth_ch9141_rx_buffer
      0000145AH   PUBLIC    EDATA    BYTE      at_mode_num
      0000149BH   PUBLIC    EDATA    BYTE      uart_flag
      0000149CH   PUBLIC    EDATA    BYTE      uart_data
      0000149EH   PUBLIC    EDATA    ---       at_mode_data
      000014BCH   PUBLIC    EDATA    BYTE      at_mode
      000014D1H   PUBLIC    EDATA    BYTE      at_mode_cmd_flag
      000014D2H   PUBLIC    EDATA    ---       mac_address
      000013AEH   PUBLIC    EDATA    ---       ?fifo_write_buffer?BYTE
      000000D0H   SFRSYM    DATA     BYTE      PSW
      000000BDH   SFRSYM    DATA     BYTE      S4BUF
      00000080H.7 SFRSYM    DATA     BIT       P07
      00000088H   SFRSYM    DATA     BYTE      TCON
      00000098H   SFRSYM    DATA     BYTE      SCON
      000000B8H   SFRSYM    DATA     BYTE      IP
      000000A8H   SFRSYM    DATA     BYTE      IE
      000000F8H   SFRSYM    DATA     BYTE      P7
      000000E8H   SFRSYM    DATA     BYTE      P6
L251 LINKER/LOCATER V4.66.93.0                                                        05/01/2022  09:46:42  PAGE 61


      000000C8H   SFRSYM    DATA     BYTE      P5
      000000C0H   SFRSYM    DATA     BYTE      P4
      000000B0H   SFRSYM    DATA     BYTE      P3
      000000A0H   SFRSYM    DATA     BYTE      P2
      00000090H   SFRSYM    DATA     BYTE      P1
      00000080H   SFRSYM    DATA     BYTE      P0
      0000145BH   SYMBOL    EDATA    ---       bluetooth_ch9141_buffer
      0000149DH   SYMBOL    EDATA    BYTE      bluetooth_ch9141_data
      000014BDH   SYMBOL    EDATA    ---       bluetooth_ch9141_fifo
      REG=2       REGSYM    ---      ---       fifo
      REG=7       REGSYM    ---      ---       buffer_addr

      00FF3861H   BLOCK     CODE     ---       LVL=0
      REG=7       REGSYM    ---      ---       fifo
      DR24        REGSYM    ---      DWORD     offset
      00FF3861H   LINE      CODE     ---       #86
      00FF3865H   LINE      CODE     ---       #88
      00FF3870H   LINE      CODE     ---       #90
      00FF3872H   LINE      CODE     ---       #92
      00FF388EH   LINE      CODE     ---       #93
      00FF38A2H   LINE      CODE     ---       #94
      ---         BLOCKEND  ---      ---       LVL=0
      REG=7       REGSYM    ---      ---       fifo
      DR24        REGSYM    ---      DWORD     offset
      REG=2       REGSYM    ---      ---       fifo
      REG=7       REGSYM    ---      ---       fifo

      00FF2784H   BLOCK     CODE     ---       LVL=0
      REG=3       REGSYM    ---      ---       fifo
      000013B2H   SYMBOL    EDATA    ---       dat
      000013B6H   SYMBOL    EDATA    DWORD     length
      00FF278CH   BLOCK     CODE     NEAR LAB  LVL=1
      000013BAH   SYMBOL    EDATA    DWORD     temp_length
      ---         BLOCKEND  ---      ---       LVL=1
      00FF2784H   LINE      CODE     ---       #145
      00FF278CH   LINE      CODE     ---       #146
      00FF278CH   LINE      CODE     ---       #149
      00FF279FH   LINE      CODE     ---       #151
      00FF27A2H   LINE      CODE     ---       #152
      00FF27B8H   LINE      CODE     ---       #154
      00FF27C0H   LINE      CODE     ---       #156
      00FF27D8H   LINE      CODE     ---       #157
      00FF27E1H   LINE      CODE     ---       #158
      00FF27F1H   LINE      CODE     ---       #159
      00FF2811H   LINE      CODE     ---       #160
      00FF281DH   LINE      CODE     ---       #161
      00FF281FH   LINE      CODE     ---       #164
      00FF283BH   LINE      CODE     ---       #165
      00FF2844H   LINE      CODE     ---       #166
      00FF2844H   LINE      CODE     ---       #168
      00FF285EH   LINE      CODE     ---       #169
      00FF2861H   LINE      CODE     ---       #170
      00FF2863H   LINE      CODE     ---       #173
      00FF2869H   LINE      CODE     ---       #174
      00FF2869H   LINE      CODE     ---       #176
      00FF286BH   LINE      CODE     ---       #177
      ---         BLOCKEND  ---      ---       LVL=0
      REG=3       REGSYM    ---      ---       fifo

      00FF0026H   BLOCK     CODE     ---       LVL=0
      00FF0026H   LINE      CODE     ---       #231
      00FF0026H   LINE      CODE     ---       #234
      00FF002CH   LINE      CODE     ---       #235
      ---         BLOCKEND  ---      ---       LVL=0
      DR12        REGSYM    ---      DWORD     len
L251 LINKER/LOCATER V4.66.93.0                                                        05/01/2022  09:46:42  PAGE 62


      REG=7       REGSYM    ---      ---       buff
      DR8         REGSYM    ---      DWORD     len

      ---         MODULE    ---      ---       isr
      00FF3920H   PUBLIC    CODE     ---       UART1_Isr
      00FF3B24H   PUBLIC    CODE     ---       UART2_Isr
      00FF3B42H   PUBLIC    CODE     ---       UART3_Isr
      00FF3641H   PUBLIC    CODE     ---       UART4_Isr
      00FF000AH   PUBLIC    CODE     ---       INT0_Isr
      00FF0012H   PUBLIC    CODE     ---       INT1_Isr
      00FF3BBCH   PUBLIC    CODE     ---       INT2_Isr
      00FF3BC4H   PUBLIC    CODE     ---       INT3_Isr
      00FF3BCCH   PUBLIC    CODE     ---       INT4_Isr
      00FF001AH   PUBLIC    CODE     ---       TM0_Isr
      00FF0022H   PUBLIC    CODE     ---       TM1_Isr
      00FF3BD4H   PUBLIC    CODE     ---       TM2_Isr
      00FF3BDCH   PUBLIC    CODE     ---       TM3_Isr
      00FF357CH   PUBLIC    CODE     ---       TM4_Isr
      000000D0H   SFRSYM    DATA     BYTE      PSW
      000000DAH   SFRSYM    DATA     BYTE      AUXINTIF
      000000BCH   SFRSYM    DATA     BYTE      S4CON
      000000E5H   SFRSYM    DATA     BYTE      S3CON
      000000E3H   SFRSYM    DATA     BYTE      S2CON
      000000C7H   SFRSYM    DATA     BYTE      IAP_CONTR
      00000088H   SFRSYM    DATA     BYTE      TCON
      00000098H   SFRSYM    DATA     BYTE      SCON
      00000099H   SFRSYM    DATA     BYTE      SBUF
      000000B8H   SFRSYM    DATA     BYTE      IP
      000000A8H   SFRSYM    DATA     BYTE      IE
      000000F8H   SFRSYM    DATA     BYTE      P7
      000000E8H   SFRSYM    DATA     BYTE      P6
      000000C8H   SFRSYM    DATA     BYTE      P5
      000000C0H   SFRSYM    DATA     BYTE      P4
      000000B0H   SFRSYM    DATA     BYTE      P3
      000000A0H   SFRSYM    DATA     BYTE      P2
      00000090H   SFRSYM    DATA     BYTE      P1
      00000080H   SFRSYM    DATA     BYTE      P0

      00FF3920H   BLOCK     CODE     ---       LVL=0
      00FF3924H   BLOCK     CODE     NEAR LAB  LVL=1
      R11         REGSYM    ---      BYTE      res
      000016B4H   SYMBOL    EDATA    BYTE      dwon_count
      ---         BLOCKEND  ---      ---       LVL=1
      00FF3920H   LINE      CODE     ---       #22
      00FF3924H   LINE      CODE     ---       #23
      00FF3924H   LINE      CODE     ---       #26
      00FF3929H   LINE      CODE     ---       #28
      00FF392CH   LINE      CODE     ---       #29
      00FF3931H   LINE      CODE     ---       #30
      00FF3931H   LINE      CODE     ---       #31
      00FF3936H   LINE      CODE     ---       #33
      00FF3939H   LINE      CODE     ---       #34
      00FF393BH   LINE      CODE     ---       #36
      00FF393EH   LINE      CODE     ---       #38
      00FF394EH   LINE      CODE     ---       #39
      00FF3951H   LINE      CODE     ---       #40
      00FF3953H   LINE      CODE     ---       #43
      00FF3958H   LINE      CODE     ---       #44
      00FF3958H   LINE      CODE     ---       #45
      ---         BLOCKEND  ---      ---       LVL=0

      00FF3B24H   BLOCK     CODE     ---       LVL=0
      00FF3B24H   LINE      CODE     ---       #49
      00FF3B28H   LINE      CODE     ---       #51
      00FF3B2DH   LINE      CODE     ---       #53
L251 LINKER/LOCATER V4.66.93.0                                                        05/01/2022  09:46:42  PAGE 63


      00FF3B30H   LINE      CODE     ---       #54
      00FF3B35H   LINE      CODE     ---       #55
      00FF3B35H   LINE      CODE     ---       #56
      00FF3B3AH   LINE      CODE     ---       #58
      00FF3B3DH   LINE      CODE     ---       #61
      ---         BLOCKEND  ---      ---       LVL=0

      00FF3B42H   BLOCK     CODE     ---       LVL=0
      00FF3B42H   LINE      CODE     ---       #66
      00FF3B46H   LINE      CODE     ---       #68
      00FF3B4BH   LINE      CODE     ---       #70
      00FF3B4EH   LINE      CODE     ---       #71
      00FF3B53H   LINE      CODE     ---       #72
      00FF3B53H   LINE      CODE     ---       #73
      00FF3B58H   LINE      CODE     ---       #75
      00FF3B5BH   LINE      CODE     ---       #78
      ---         BLOCKEND  ---      ---       LVL=0

      00FF3641H   BLOCK     CODE     ---       LVL=0
      00FF3641H   LINE      CODE     ---       #83
      00FF3659H   LINE      CODE     ---       #85
      00FF365EH   LINE      CODE     ---       #87
      00FF3661H   LINE      CODE     ---       #88
      00FF3666H   LINE      CODE     ---       #89
      00FF3666H   LINE      CODE     ---       #90
      00FF366BH   LINE      CODE     ---       #92
      00FF366EH   LINE      CODE     ---       #94
      00FF3678H   LINE      CODE     ---       #95
      00FF367DH   LINE      CODE     ---       #96
      00FF3683H   LINE      CODE     ---       #97
      00FF3686H   LINE      CODE     ---       #98
      00FF3686H   LINE      CODE     ---       #99
      ---         BLOCKEND  ---      ---       LVL=0

      00FF000AH   BLOCK     CODE     ---       LVL=0
      00FF000AH   LINE      CODE     ---       #102
      00FF000AH   LINE      CODE     ---       #105
      ---         BLOCKEND  ---      ---       LVL=0

      00FF0012H   BLOCK     CODE     ---       LVL=0
      00FF0012H   LINE      CODE     ---       #106
      00FF0012H   LINE      CODE     ---       #109
      ---         BLOCKEND  ---      ---       LVL=0

      00FF3BBCH   BLOCK     CODE     ---       LVL=0
      00FF3BBCH   LINE      CODE     ---       #110
      00FF3BBEH   LINE      CODE     ---       #112
      00FF3BC1H   LINE      CODE     ---       #113
      ---         BLOCKEND  ---      ---       LVL=0

      00FF3BC4H   BLOCK     CODE     ---       LVL=0
      00FF3BC4H   LINE      CODE     ---       #114
      00FF3BC6H   LINE      CODE     ---       #116
      00FF3BC9H   LINE      CODE     ---       #117
      ---         BLOCKEND  ---      ---       LVL=0

      00FF3BCCH   BLOCK     CODE     ---       LVL=0
      00FF3BCCH   LINE      CODE     ---       #119
      00FF3BCEH   LINE      CODE     ---       #121
      00FF3BD1H   LINE      CODE     ---       #122
      ---         BLOCKEND  ---      ---       LVL=0

      00FF001AH   BLOCK     CODE     ---       LVL=0
      00FF001AH   LINE      CODE     ---       #124
      00FF001AH   LINE      CODE     ---       #127
L251 LINKER/LOCATER V4.66.93.0                                                        05/01/2022  09:46:42  PAGE 64


      ---         BLOCKEND  ---      ---       LVL=0

      00FF0022H   BLOCK     CODE     ---       LVL=0
      00FF0022H   LINE      CODE     ---       #128
      00FF0022H   LINE      CODE     ---       #131
      ---         BLOCKEND  ---      ---       LVL=0

      00FF3BD4H   BLOCK     CODE     ---       LVL=0
      00FF3BD4H   LINE      CODE     ---       #132
      00FF3BD6H   LINE      CODE     ---       #134
      00FF3BD9H   LINE      CODE     ---       #135
      ---         BLOCKEND  ---      ---       LVL=0

      00FF3BDCH   BLOCK     CODE     ---       LVL=0
      00FF3BDCH   LINE      CODE     ---       #136
      00FF3BDEH   LINE      CODE     ---       #138
      00FF3BE1H   LINE      CODE     ---       #139
      ---         BLOCKEND  ---      ---       LVL=0

      00FF357CH   BLOCK     CODE     ---       LVL=0
      00FF357CH   LINE      CODE     ---       #142
      00FF3592H   LINE      CODE     ---       #144
      00FF3595H   LINE      CODE     ---       #146
      00FF359FH   LINE      CODE     ---       #148
      00FF35A2H   LINE      CODE     ---       #153
      00FF35A5H   LINE      CODE     ---       #157
      00FF35ACH   LINE      CODE     ---       #164
      00FF35AFH   LINE      CODE     ---       #165
      00FF35B2H   LINE      CODE     ---       #166
      00FF35B5H   LINE      CODE     ---       #167
      00FF35B8H   LINE      CODE     ---       #168
      00FF35BBH   LINE      CODE     ---       #169
      00FF35BEH   LINE      CODE     ---       #172
      00FF35C9H   LINE      CODE     ---       #173
      00FF35CCH   LINE      CODE     ---       #176
      ---         BLOCKEND  ---      ---       LVL=0

      ---         MODULE    ---      ---       main
      00FF3B73H   PUBLIC    CODE     ---       main
      000000D0H   SFRSYM    DATA     BYTE      PSW
      00000088H   SFRSYM    DATA     BYTE      TCON
      00000098H   SFRSYM    DATA     BYTE      SCON
      000000B8H   SFRSYM    DATA     BYTE      IP
      000000A8H   SFRSYM    DATA     BYTE      IE
      000000F8H   SFRSYM    DATA     BYTE      P7
      000000E8H   SFRSYM    DATA     BYTE      P6
      000000C8H   SFRSYM    DATA     BYTE      P5
      000000C0H   SFRSYM    DATA     BYTE      P4
      000000B0H   SFRSYM    DATA     BYTE      P3
      000000A0H   SFRSYM    DATA     BYTE      P2
      00000090H   SFRSYM    DATA     BYTE      P1
      00000080H   SFRSYM    DATA     BYTE      P0

      00FF3B73H   BLOCK     CODE     ---       LVL=0
      00FF3B73H   LINE      CODE     ---       #4
      00FF3B73H   LINE      CODE     ---       #6
      00FF3B76H   LINE      CODE     ---       #7
      00FF3B79H   LINE      CODE     ---       #8
      00FF3B7CH   LINE      CODE     ---       #9
      00FF3B7FH   LINE      CODE     ---       #10
      00FF3B7FH   LINE      CODE     ---       #14
      00FF3B82H   LINE      CODE     ---       #19
      ---         BLOCKEND  ---      ---       LVL=0

      ---         MODULE    ---      ---       adc
L251 LINKER/LOCATER V4.66.93.0                                                        05/01/2022  09:46:42  PAGE 65


      000015A5H   PUBLIC    EDATA    ---       g_ValueOfAD
      000015B1H   PUBLIC    EDATA    INT       cbh
      000015B3H   PUBLIC    EDATA    ---       var_guiyihua_min
      000015BBH   PUBLIC    EDATA    ---       var_guiyihua_max
      000015C3H   PUBLIC    EDATA    ---       v
      000015DBH   PUBLIC    EDATA    FLOAT     ad_value1
      000015DFH   PUBLIC    EDATA    FLOAT     ad_value2
      000015E3H   PUBLIC    EDATA    FLOAT     ad_value3
      000015E7H   PUBLIC    EDATA    FLOAT     ad_value4
      000000D0H   SFRSYM    DATA     BYTE      PSW
      00000088H   SFRSYM    DATA     BYTE      TCON
      00000098H   SFRSYM    DATA     BYTE      SCON
      000000B8H   SFRSYM    DATA     BYTE      IP
      000000A8H   SFRSYM    DATA     BYTE      IE
      000000F8H   SFRSYM    DATA     BYTE      P7
      000000E8H   SFRSYM    DATA     BYTE      P6
      000000C8H   SFRSYM    DATA     BYTE      P5
      000000C0H   SFRSYM    DATA     BYTE      P4
      000000B0H   SFRSYM    DATA     BYTE      P3
      000000A0H   SFRSYM    DATA     BYTE      P2
      00000090H   SFRSYM    DATA     BYTE      P1
      00000080H   SFRSYM    DATA     BYTE      P0
      WR14        REGSYM    ---      WORD      x
      WR12        REGSYM    ---      WORD      j
      WR4         REGSYM    ---      WORD      k
      WR2         REGSYM    ---      WORD      temp

      ---         MODULE    ---      ---       display
      00FF3BB2H   PUBLIC    CODE     ---       menu_init
      00FF286EH   PUBLIC    CODE     ---       display
      00001621H   PUBLIC    EDATA    INT       io_input_state1
      00001623H   PUBLIC    EDATA    INT       io_input_state2
      00001625H   PUBLIC    EDATA    INT       io_input_state3
      00001627H   PUBLIC    EDATA    INT       io_input_state4
      00001629H   PUBLIC    EDATA    INT       io_input_state5
      0000162BH   PUBLIC    EDATA    INT       dat
      0000162DH   PUBLIC    EDATA    INT       a
      0000162FH   PUBLIC    EDATA    INT       b
      00001631H   PUBLIC    EDATA    INT       c
      00001633H   PUBLIC    EDATA    INT       d
      00001635H   PUBLIC    EDATA    INT       i
      00001637H   PUBLIC    EDATA    INT       m
      00001639H   PUBLIC    EDATA    INT       n
      0000163BH   PUBLIC    EDATA    INT       p
      0000163DH   PUBLIC    EDATA    INT       x
      0000163FH   PUBLIC    EDATA    INT       y
      00001641H   PUBLIC    EDATA    INT       z
      000000D0H   SFRSYM    DATA     BYTE      PSW
      000000B0H.5 SFRSYM    DATA     BIT       P35
      00000088H   SFRSYM    DATA     BYTE      TCON
      00000098H   SFRSYM    DATA     BYTE      SCON
      000000B8H   SFRSYM    DATA     BYTE      IP
      000000A8H   SFRSYM    DATA     BYTE      IE
      000000F8H   SFRSYM    DATA     BYTE      P7
      000000E8H   SFRSYM    DATA     BYTE      P6
      000000C8H   SFRSYM    DATA     BYTE      P5
      000000C0H   SFRSYM    DATA     BYTE      P4
      000000B0H   SFRSYM    DATA     BYTE      P3
      000000A0H   SFRSYM    DATA     BYTE      P2
      00000090H   SFRSYM    DATA     BYTE      P1
      00000080H   SFRSYM    DATA     BYTE      P0

      00FF3BB2H   BLOCK     CODE     ---       LVL=0
      00FF3BB2H   LINE      CODE     ---       #10
      00FF3BB2H   LINE      CODE     ---       #12
L251 LINKER/LOCATER V4.66.93.0                                                        05/01/2022  09:46:42  PAGE 66


      00FF3BB5H   LINE      CODE     ---       #13
      ---         BLOCKEND  ---      ---       LVL=0

      00FF286EH   BLOCK     CODE     ---       LVL=0
      00FF286EH   LINE      CODE     ---       #199
      00FF286EH   LINE      CODE     ---       #201
      00FF2878H   LINE      CODE     ---       #202
      00FF2889H   LINE      CODE     ---       #203
      00FF289CH   LINE      CODE     ---       #204
      00FF28AFH   LINE      CODE     ---       #205
      00FF28C2H   LINE      CODE     ---       #217
      00FF28CFH   LINE      CODE     ---       #218
      00FF28DEH   LINE      CODE     ---       #219
      00FF28EDH   LINE      CODE     ---       #220
      00FF28FCH   LINE      CODE     ---       #227
      00FF290BH   LINE      CODE     ---       #228
      00FF291AH   LINE      CODE     ---       #229
      00FF2929H   LINE      CODE     ---       #231
      00FF2938H   LINE      CODE     ---       #234
      00FF2945H   LINE      CODE     ---       #235
      ---         BLOCKEND  ---      ---       LVL=0

      ---         MODULE    ---      ---       init
      00FF3A3CH   PUBLIC    CODE     ---       init
      000000D0H   SFRSYM    DATA     BYTE      PSW
      00000088H   SFRSYM    DATA     BYTE      TCON
      00000098H   SFRSYM    DATA     BYTE      SCON
      000000B8H   SFRSYM    DATA     BYTE      IP
      000000A8H   SFRSYM    DATA     BYTE      IE
      000000F8H   SFRSYM    DATA     BYTE      P7
      000000E8H   SFRSYM    DATA     BYTE      P6
      000000C8H   SFRSYM    DATA     BYTE      P5
      000000C0H   SFRSYM    DATA     BYTE      P4
      000000B0H   SFRSYM    DATA     BYTE      P3
      000000A0H   SFRSYM    DATA     BYTE      P2
      00000090H   SFRSYM    DATA     BYTE      P1
      00000080H   SFRSYM    DATA     BYTE      P0

      00FF3A3CH   BLOCK     CODE     ---       LVL=0
      00FF3A3CH   LINE      CODE     ---       #3
      00FF3A3CH   LINE      CODE     ---       #6
      00FF3A47H   LINE      CODE     ---       #7
      00FF3A52H   LINE      CODE     ---       #8
      00FF3A5DH   LINE      CODE     ---       #10
      00FF3A60H   LINE      CODE     ---       #11
      00FF3A63H   LINE      CODE     ---       #12
      00FF3A66H   LINE      CODE     ---       #13
      00FF3A69H   LINE      CODE     ---       #14
      ---         BLOCKEND  ---      ---       LVL=0

      ---         MODULE    ---      ---       motor
      00FF2E1AH   PUBLIC    CODE     ---       PWM_Control
      00FF381DH   PUBLIC    CODE     ---       motor_init
      00FF2EC5H   PUBLIC    CODE     ---       PWM_Output
      00001643H   PUBLIC    EDATA    WORD      Right_Duty
      00001645H   PUBLIC    EDATA    WORD      PWM_Out
      00001647H   PUBLIC    EDATA    WORD      PWM_RightOut
      00001649H   PUBLIC    EDATA    WORD      Left_Duty
      0000164BH   PUBLIC    EDATA    WORD      PWM_LeftOut
      0000164DH   PUBLIC    EDATA    WORD      Now_speed
      0000164FH   PUBLIC    EDATA    FLOAT     Target_Speed
      00001653H   PUBLIC    EDATA    FLOAT     Speed_KD
      00001657H   PUBLIC    EDATA    FLOAT     Speed_KI
      0000165BH   PUBLIC    EDATA    FLOAT     Speed_KP
      000000D0H   SFRSYM    DATA     BYTE      PSW
L251 LINKER/LOCATER V4.66.93.0                                                        05/01/2022  09:46:42  PAGE 67


      00000088H   SFRSYM    DATA     BYTE      TCON
      00000098H   SFRSYM    DATA     BYTE      SCON
      000000B8H   SFRSYM    DATA     BYTE      IP
      000000A8H   SFRSYM    DATA     BYTE      IE
      000000F8H   SFRSYM    DATA     BYTE      P7
      000000E8H   SFRSYM    DATA     BYTE      P6
      000000C8H   SFRSYM    DATA     BYTE      P5
      000000C0H   SFRSYM    DATA     BYTE      P4
      000000B0H   SFRSYM    DATA     BYTE      P3
      000000A0H   SFRSYM    DATA     BYTE      P2
      00000090H   SFRSYM    DATA     BYTE      P1
      00000080H   SFRSYM    DATA     BYTE      P0

      00FF381DH   BLOCK     CODE     ---       LVL=0
      00FF381DH   LINE      CODE     ---       #16
      00FF381DH   LINE      CODE     ---       #18
      00FF382EH   LINE      CODE     ---       #19
      00FF383FH   LINE      CODE     ---       #20
      00FF3850H   LINE      CODE     ---       #21
      ---         BLOCKEND  ---      ---       LVL=0

      00FF2EC5H   BLOCK     CODE     ---       LVL=0
      WR14        REGSYM    ---      INT       R_Duty
      WR12        REGSYM    ---      INT       L_Duty
      00FF2EC5H   LINE      CODE     ---       #29
      00FF2ECBH   LINE      CODE     ---       #31
      00FF2ED1H   LINE      CODE     ---       #33
      00FF2EDFH   LINE      CODE     ---       #34
      00FF2EE8H   LINE      CODE     ---       #35
      00FF2EF2H   LINE      CODE     ---       #36
      00FF2EF4H   LINE      CODE     ---       #39
      00FF2F02H   LINE      CODE     ---       #40
      00FF2F11H   LINE      CODE     ---       #41
      00FF2F1AH   LINE      CODE     ---       #42
      00FF2F1AH   LINE      CODE     ---       #43
      00FF2F20H   LINE      CODE     ---       #45
      00FF2F2EH   LINE      CODE     ---       #46
      00FF2F37H   LINE      CODE     ---       #47
      00FF2F41H   LINE      CODE     ---       #48
      00FF2F43H   LINE      CODE     ---       #51
      00FF2F55H   LINE      CODE     ---       #52
      00FF2F64H   LINE      CODE     ---       #53
      00FF2F6DH   LINE      CODE     ---       #54
      00FF2F6DH   LINE      CODE     ---       #56
      ---         BLOCKEND  ---      ---       LVL=0

      00FF2E1AH   BLOCK     CODE     ---       LVL=0
      00FF2E1AH   LINE      CODE     ---       #62
      00FF2E1AH   LINE      CODE     ---       #64
      00FF2E2AH   LINE      CODE     ---       #66
      00FF2E30H   LINE      CODE     ---       #67
      00FF2E32H   LINE      CODE     ---       #68
      00FF2E3EH   LINE      CODE     ---       #70
      00FF2E48H   LINE      CODE     ---       #71
      00FF2E4AH   LINE      CODE     ---       #72
      00FF2E56H   LINE      CODE     ---       #74
      00FF2E5CH   LINE      CODE     ---       #75
      00FF2E5EH   LINE      CODE     ---       #78
      00FF2E68H   LINE      CODE     ---       #79
      00FF2E68H   LINE      CODE     ---       #102
      00FF2E96H   LINE      CODE     ---       #103
      00FF2EC4H   LINE      CODE     ---       #105
      ---         BLOCKEND  ---      ---       LVL=0

      ---         MODULE    ---      ---       pid
L251 LINKER/LOCATER V4.66.93.0                                                        05/01/2022  09:46:42  PAGE 68


      00FF3202H   PUBLIC    CODE     ---       PID_Realize
      00FF30C6H   PUBLIC    CODE     ---       PID_LIncrease
      00FF3164H   PUBLIC    CODE     ---       PID_RIncrease
      0000154DH   PUBLIC    EDATA    FLOAT     Increase_LLastError
      00001551H   PUBLIC    EDATA    FLOAT     Increase_RLastError
      00001555H   PUBLIC    EDATA    FLOAT     Increase_LPrevError
      00001559H   PUBLIC    EDATA    FLOAT     Increase_RPrevError
      0000155DH   PUBLIC    EDATA    FLOAT     Increase_LSumError
      00001561H   PUBLIC    EDATA    FLOAT     Increase_LastData
      00001565H   PUBLIC    EDATA    FLOAT     Increase_RSumError
      00001569H   PUBLIC    EDATA    FLOAT     Increase_LastError
      0000156DH   PUBLIC    EDATA    FLOAT     Increase_PrevError
      00001571H   PUBLIC    EDATA    FLOAT     Realize_LastData
      00001575H   PUBLIC    EDATA    FLOAT     Increase_SumError
      00001579H   PUBLIC    EDATA    FLOAT     Realize_LastError
      0000157DH   PUBLIC    EDATA    FLOAT     Realize_PrevError
      00001581H   PUBLIC    EDATA    FLOAT     Increase_LLastData
      00001585H   PUBLIC    EDATA    FLOAT     Increase_RLastData
      00001589H   PUBLIC    EDATA    FLOAT     Realize_SumError
      000013B6H   PUBLIC    EDATA    BYTE      ?PID_Realize?BYTE
      000013B6H   PUBLIC    EDATA    BYTE      ?PID_LIncrease?BYTE
      000013B6H   PUBLIC    EDATA    BYTE      ?PID_RIncrease?BYTE
      000000D0H   SFRSYM    DATA     BYTE      PSW
      00000088H   SFRSYM    DATA     BYTE      TCON
      00000098H   SFRSYM    DATA     BYTE      SCON
      000000B8H   SFRSYM    DATA     BYTE      IP
      000000A8H   SFRSYM    DATA     BYTE      IE
      000000F8H   SFRSYM    DATA     BYTE      P7
      000000E8H   SFRSYM    DATA     BYTE      P6
      000000C8H   SFRSYM    DATA     BYTE      P5
      000000C0H   SFRSYM    DATA     BYTE      P4
      000000B0H   SFRSYM    DATA     BYTE      P3
      000000A0H   SFRSYM    DATA     BYTE      P2
      00000090H   SFRSYM    DATA     BYTE      P1
      00000080H   SFRSYM    DATA     BYTE      P0

      00FF3202H   BLOCK     CODE     ---       LVL=0
      DR24        REGSYM    ---      FLOAT     KP
      DR28        REGSYM    ---      FLOAT     KI
      000013BEH   SYMBOL    EDATA    FLOAT     KD
      000013C2H   SYMBOL    EDATA    FLOAT     KT
      000013C6H   SYMBOL    EDATA    LONG      NowData
      000013CAH   SYMBOL    EDATA    LONG      Point
      00FF3204H   BLOCK     CODE     NEAR LAB  LVL=1
      DR0         REGSYM    ---      LONG      Realize
      DR20        REGSYM    ---      LONG      Error
      ---         BLOCKEND  ---      ---       LVL=1
      00FF3202H   LINE      CODE     ---       #9
      00FF3204H   LINE      CODE     ---       #10
      00FF3204H   LINE      CODE     ---       #14
      00FF320EH   LINE      CODE     ---       #15
      00FF3223H   LINE      CODE     ---       #17
      00FF3234H   LINE      CODE     ---       #19
      00FF3234H   LINE      CODE     ---       #20
      00FF3236H   LINE      CODE     ---       #21
      00FF3244H   LINE      CODE     ---       #23
      00FF3248H   LINE      CODE     ---       #24
      00FF3248H   LINE      CODE     ---       #26
      00FF327EH   LINE      CODE     ---       #31
      00FF3282H   LINE      CODE     ---       #32
      00FF328DH   LINE      CODE     ---       #33
      00FF329AH   LINE      CODE     ---       #35
      00FF329CH   LINE      CODE     ---       #36
      ---         BLOCKEND  ---      ---       LVL=0
      DR28        REGSYM    ---      FLOAT     KP
L251 LINKER/LOCATER V4.66.93.0                                                        05/01/2022  09:46:42  PAGE 69


      DR24        REGSYM    ---      FLOAT     KI
      0000158DH   SYMBOL    EDATA    LONG      iError
      00001591H   SYMBOL    EDATA    LONG      Increase

      00FF30C6H   BLOCK     CODE     ---       LVL=0
      DR28        REGSYM    ---      FLOAT     KP
      DR24        REGSYM    ---      FLOAT     KI
      000013BEH   SYMBOL    EDATA    FLOAT     KD
      000013C2H   SYMBOL    EDATA    LONG      NowData
      000013C6H   SYMBOL    EDATA    LONG      Point
      00FF30CAH   BLOCK     CODE     NEAR LAB  LVL=1
      00001595H   SYMBOL    EDATA    LONG      iError
      00001599H   SYMBOL    EDATA    LONG      Increase
      ---         BLOCKEND  ---      ---       LVL=1
      00FF30C6H   LINE      CODE     ---       #74
      00FF30CAH   LINE      CODE     ---       #75
      00FF30CAH   LINE      CODE     ---       #80
      00FF30D8H   LINE      CODE     ---       #82
      00FF3137H   LINE      CODE     ---       #86
      00FF313DH   LINE      CODE     ---       #88
      00FF3145H   LINE      CODE     ---       #89
      00FF3145H   LINE      CODE     ---       #91
      00FF314FH   LINE      CODE     ---       #93
      00FF3157H   LINE      CODE     ---       #94
      00FF3157H   LINE      CODE     ---       #96
      00FF315BH   LINE      CODE     ---       #97
      00FF315FH   LINE      CODE     ---       #99
      00FF3163H   LINE      CODE     ---       #100
      ---         BLOCKEND  ---      ---       LVL=0

      00FF3164H   BLOCK     CODE     ---       LVL=0
      DR28        REGSYM    ---      FLOAT     KP
      DR24        REGSYM    ---      FLOAT     KI
      000013BEH   SYMBOL    EDATA    FLOAT     KD
      000013C2H   SYMBOL    EDATA    LONG      NowData
      000013C6H   SYMBOL    EDATA    LONG      Point
      00FF3168H   BLOCK     CODE     NEAR LAB  LVL=1
      0000159DH   SYMBOL    EDATA    LONG      iError
      000015A1H   SYMBOL    EDATA    LONG      Increase
      ---         BLOCKEND  ---      ---       LVL=1
      00FF3164H   LINE      CODE     ---       #109
      00FF3168H   LINE      CODE     ---       #110
      00FF3168H   LINE      CODE     ---       #115
      00FF3176H   LINE      CODE     ---       #117
      00FF31D5H   LINE      CODE     ---       #120
      00FF31DBH   LINE      CODE     ---       #122
      00FF31E3H   LINE      CODE     ---       #123
      00FF31E3H   LINE      CODE     ---       #125
      00FF31EDH   LINE      CODE     ---       #127
      00FF31F5H   LINE      CODE     ---       #128
      00FF31F5H   LINE      CODE     ---       #130
      00FF31F9H   LINE      CODE     ---       #131
      00FF31FDH   LINE      CODE     ---       #133
      00FF3201H   LINE      CODE     ---       #134
      ---         BLOCKEND  ---      ---       LVL=0

      ---         MODULE    ---      ---       steer
      00FF3A9AH   PUBLIC    CODE     ---       steer_output
      00FF3B60H   PUBLIC    CODE     ---       steer_init
      00FF2BDDH   PUBLIC    CODE     ---       ccd_Steer_Control
      0000165FH   PUBLIC    EDATA    INT       Steer_PWMoutput
      00001661H   PUBLIC    EDATA    INT       Target_direction
      00001663H   PUBLIC    EDATA    FLOAT     steer_KD
      00001667H   PUBLIC    EDATA    FLOAT     steer_KP
      0000166BH   PUBLIC    EDATA    FLOAT     steer_KT
L251 LINKER/LOCATER V4.66.93.0                                                        05/01/2022  09:46:42  PAGE 70


      0000166FH   PUBLIC    EDATA    INT       Mid_Value
      000000D0H   SFRSYM    DATA     BYTE      PSW
      00000088H   SFRSYM    DATA     BYTE      TCON
      00000098H   SFRSYM    DATA     BYTE      SCON
      000000B8H   SFRSYM    DATA     BYTE      IP
      000000A8H   SFRSYM    DATA     BYTE      IE
      000000F8H   SFRSYM    DATA     BYTE      P7
      000000E8H   SFRSYM    DATA     BYTE      P6
      000000C8H   SFRSYM    DATA     BYTE      P5
      000000C0H   SFRSYM    DATA     BYTE      P4
      000000B0H   SFRSYM    DATA     BYTE      P3
      000000A0H   SFRSYM    DATA     BYTE      P2
      00000090H   SFRSYM    DATA     BYTE      P1
      00000080H   SFRSYM    DATA     BYTE      P0

      00FF3B60H   BLOCK     CODE     ---       LVL=0
      00FF3B60H   LINE      CODE     ---       #8
      00FF3B60H   LINE      CODE     ---       #10
      ---         BLOCKEND  ---      ---       LVL=0

      00FF2BDDH   BLOCK     CODE     ---       LVL=0
      00FF2BDDH   LINE      CODE     ---       #76
      00FF2BDDH   LINE      CODE     ---       #78
      00FF2BEAH   LINE      CODE     ---       #80
      00FF2BFAH   LINE      CODE     ---       #82
      00FF2C06H   LINE      CODE     ---       #83
      00FF2C0AH   LINE      CODE     ---       #84
      00FF2C0CH   LINE      CODE     ---       #85
      00FF2C18H   LINE      CODE     ---       #87
      00FF2C24H   LINE      CODE     ---       #88
      00FF2C2EH   LINE      CODE     ---       #89
      00FF2C30H   LINE      CODE     ---       #90
      00FF2C3CH   LINE      CODE     ---       #92
      00FF2C48H   LINE      CODE     ---       #93
      00FF2C50H   LINE      CODE     ---       #94
      00FF2C52H   LINE      CODE     ---       #97
      00FF2C5EH   LINE      CODE     ---       #98
      00FF2C6AH   LINE      CODE     ---       #99
      00FF2C6AH   LINE      CODE     ---       #101
      00FF2C6AH   LINE      CODE     ---       #102
      00FF2CA7H   LINE      CODE     ---       #103
      ---         BLOCKEND  ---      ---       LVL=0

      00FF3A9AH   BLOCK     CODE     ---       LVL=0
      WR4         REGSYM    ---      INT       Steer
      00FF3A9AH   LINE      CODE     ---       #105
      00FF3A9CH   LINE      CODE     ---       #107
      00FF3AA2H   LINE      CODE     ---       #109
      00FF3AA6H   LINE      CODE     ---       #110
      00FF3AA8H   LINE      CODE     ---       #111
      00FF3AAEH   LINE      CODE     ---       #113
      00FF3AB2H   LINE      CODE     ---       #114
      00FF3AB2H   LINE      CODE     ---       #115
      ---         BLOCKEND  ---      ---       LVL=0

      ---         MODULE    ---      ---       key
      000016B2H   PUBLIC    EDATA    INT       pwm
      000000D0H   SFRSYM    DATA     BYTE      PSW
      000000B0H.7 SFRSYM    DATA     BIT       P37
      000000B0H.6 SFRSYM    DATA     BIT       P36
      000000F8H.1 SFRSYM    DATA     BIT       P71
      000000F8H.0 SFRSYM    DATA     BIT       P70
      00000088H   SFRSYM    DATA     BYTE      TCON
      00000098H   SFRSYM    DATA     BYTE      SCON
      000000B8H   SFRSYM    DATA     BYTE      IP
L251 LINKER/LOCATER V4.66.93.0                                                        05/01/2022  09:46:42  PAGE 71


      000000A8H   SFRSYM    DATA     BYTE      IE
      000000F8H   SFRSYM    DATA     BYTE      P7
      000000E8H   SFRSYM    DATA     BYTE      P6
      000000C8H   SFRSYM    DATA     BYTE      P5
      000000C0H   SFRSYM    DATA     BYTE      P4
      000000B0H   SFRSYM    DATA     BYTE      P3
      000000A0H   SFRSYM    DATA     BYTE      P2
      00000090H   SFRSYM    DATA     BYTE      P1
      00000080H   SFRSYM    DATA     BYTE      P0

      ---         MODULE    ---      ---       encoder
      00FF2171H   PUBLIC    CODE     ---       encoder_get
      00FF3B92H   PUBLIC    CODE     ---       encoder_init
      000015EBH   PUBLIC    EDATA    BYTE      e_val
      000015ECH   PUBLIC    EDATA    ---       dat_right
      000015F6H   PUBLIC    EDATA    ---       dat_left
      00001600H   PUBLIC    EDATA    ---       en_datl
      0000160AH   PUBLIC    EDATA    ---       en_datr
      00001614H   PUBLIC    EDATA    BYTE      e
      00001615H   PUBLIC    EDATA    INT       encoder_right
      00001617H   PUBLIC    EDATA    INT       encoder_left
      00001619H   PUBLIC    EDATA    FLOAT     en_suml
      0000161DH   PUBLIC    EDATA    FLOAT     en_sumr
      000000D0H   SFRSYM    DATA     BYTE      PSW
      000000F8H.7 SFRSYM    DATA     BIT       P77
      000000B0H.5 SFRSYM    DATA     BIT       P35
      00000088H   SFRSYM    DATA     BYTE      TCON
      00000098H   SFRSYM    DATA     BYTE      SCON
      000000B8H   SFRSYM    DATA     BYTE      IP
      000000A8H   SFRSYM    DATA     BYTE      IE
      000000F8H   SFRSYM    DATA     BYTE      P7
      000000E8H   SFRSYM    DATA     BYTE      P6
      000000C8H   SFRSYM    DATA     BYTE      P5
      000000C0H   SFRSYM    DATA     BYTE      P4
      000000B0H   SFRSYM    DATA     BYTE      P3
      000000A0H   SFRSYM    DATA     BYTE      P2
      00000090H   SFRSYM    DATA     BYTE      P1
      00000080H   SFRSYM    DATA     BYTE      P0

      00FF3B92H   BLOCK     CODE     ---       LVL=0
      00FF3B92H   LINE      CODE     ---       #9
      00FF3B92H   LINE      CODE     ---       #11
      00FF3B97H   LINE      CODE     ---       #12
      ---         BLOCKEND  ---      ---       LVL=0

      00FF2171H   BLOCK     CODE     ---       LVL=0
      00FF2175H   BLOCK     CODE     NEAR LAB  LVL=1
      WR14        REGSYM    ---      INT       i
      ---         BLOCKEND  ---      ---       LVL=1
      00FF2171H   LINE      CODE     ---       #15
      00FF2175H   LINE      CODE     ---       #16
      00FF2175H   LINE      CODE     ---       #18
      00FF217CH   LINE      CODE     ---       #20
      00FF217EH   LINE      CODE     ---       #22
      00FF218BH   LINE      CODE     ---       #23
      00FF2193H   LINE      CODE     ---       #24
      00FF2195H   LINE      CODE     ---       #27
      00FF2197H   LINE      CODE     ---       #29
      00FF21AAH   LINE      CODE     ---       #30
      00FF21B2H   LINE      CODE     ---       #31
      00FF21B2H   LINE      CODE     ---       #33
      00FF21B9H   LINE      CODE     ---       #35
      00FF21BBH   LINE      CODE     ---       #37
      00FF21D0H   LINE      CODE     ---       #38
      00FF21D8H   LINE      CODE     ---       #39
L251 LINKER/LOCATER V4.66.93.0                                                        05/01/2022  09:46:42  PAGE 72


      00FF21DAH   LINE      CODE     ---       #42
      00FF21DCH   LINE      CODE     ---       #44
      00FF21EBH   LINE      CODE     ---       #45
      00FF21F3H   LINE      CODE     ---       #46
      00FF21F3H   LINE      CODE     ---       #49
      00FF21F8H   LINE      CODE     ---       #50
      00FF21FFH   LINE      CODE     ---       #52
      00FF2202H   LINE      CODE     ---       #54
      00FF2213H   LINE      CODE     ---       #55
      00FF2226H   LINE      CODE     ---       #56
      00FF22B0H   LINE      CODE     ---       #58
      00FF22B3H   LINE      CODE     ---       #60
      00FF22C4H   LINE      CODE     ---       #61
      00FF22D3H   LINE      CODE     ---       #62
      00FF2347H   LINE      CODE     ---       #64
      00FF2352H   LINE      CODE     ---       #65
      00FF235BH   LINE      CODE     ---       #66
      ---         BLOCKEND  ---      ---       LVL=0

      ---         MODULE    ---      ---       up
      000014E3H   PUBLIC    EDATA    ---       Data_to_Send
      00001547H   PUBLIC    EDATA    ---       warebuf
      000000D0H   SFRSYM    DATA     BYTE      PSW
      000000F8H.0 SFRSYM    DATA     BIT       P70
      00000088H   SFRSYM    DATA     BYTE      TCON
      00000098H   SFRSYM    DATA     BYTE      SCON
      000000B8H   SFRSYM    DATA     BYTE      IP
      000000A8H   SFRSYM    DATA     BYTE      IE
      000000F8H   SFRSYM    DATA     BYTE      P7
      000000E8H   SFRSYM    DATA     BYTE      P6
      000000C8H   SFRSYM    DATA     BYTE      P5
      000000C0H   SFRSYM    DATA     BYTE      P4
      000000B0H   SFRSYM    DATA     BYTE      P3
      000000A0H   SFRSYM    DATA     BYTE      P2
      00000090H   SFRSYM    DATA     BYTE      P1
      00000080H   SFRSYM    DATA     BYTE      P0
      00FF008EH   SYMBOL    HCONST   ---       ?tpl?0001
      00FF0090H   SYMBOL    HCONST   ---       ?tpl?0002
      REG=3       REGSYM    ---      ---       buff
      WR14        REGSYM    ---      WORD      waresize
      00001549H   SYMBOL    EDATA    BYTE      _cnt
      0000154AH   SYMBOL    EDATA    BYTE      i
      0000154BH   SYMBOL    EDATA    BYTE      sumcheck
      0000154CH   SYMBOL    EDATA    BYTE      addcheck

      ---         MODULE    ---      ---       element
      00FF329DH   PUBLIC    CODE     ---       ccd_sz
      00001671H   PUBLIC    EDATA    INT       cirque_flag
      00001673H   PUBLIC    EDATA    INT       d_cnt
      00001675H   PUBLIC    EDATA    INT       flag_0
      00001677H   PUBLIC    EDATA    INT       side_cnt
      00001679H   PUBLIC    EDATA    INT       sc_flag
      0000167BH   PUBLIC    EDATA    INT       sz_flag
      0000167DH   PUBLIC    EDATA    INT       sideway_flag
      000000D0H   SFRSYM    DATA     BYTE      PSW
      00000080H.7 SFRSYM    DATA     BIT       P07
      00000088H   SFRSYM    DATA     BYTE      TCON
      00000098H   SFRSYM    DATA     BYTE      SCON
      000000B8H   SFRSYM    DATA     BYTE      IP
      000000A8H   SFRSYM    DATA     BYTE      IE
      000000F8H   SFRSYM    DATA     BYTE      P7
      000000E8H   SFRSYM    DATA     BYTE      P6
      000000C8H   SFRSYM    DATA     BYTE      P5
      000000C0H   SFRSYM    DATA     BYTE      P4
      000000B0H   SFRSYM    DATA     BYTE      P3
L251 LINKER/LOCATER V4.66.93.0                                                        05/01/2022  09:46:42  PAGE 73


      000000A0H   SFRSYM    DATA     BYTE      P2
      00000090H   SFRSYM    DATA     BYTE      P1
      00000080H   SFRSYM    DATA     BYTE      P0

      00FF329DH   BLOCK     CODE     ---       LVL=0
      00FF329DH   LINE      CODE     ---       #108
      00FF329DH   LINE      CODE     ---       #112
      00FF32A3H   LINE      CODE     ---       #114
      00FF32B5H   LINE      CODE     ---       #116
      00FF32B5H   LINE      CODE     ---       #117
      00FF32B5H   LINE      CODE     ---       #118
      00FF32BBH   LINE      CODE     ---       #120
      00FF32C3H   LINE      CODE     ---       #121
      00FF32CFH   LINE      CODE     ---       #123
      00FF3301H   LINE      CODE     ---       #127
      00FF3309H   LINE      CODE     ---       #128
      00FF3309H   LINE      CODE     ---       #130
      00FF3313H   LINE      CODE     ---       #132
      00FF331BH   LINE      CODE     ---       #135
      00FF332FH   LINE      CODE     ---       #137
      00FF3333H   LINE      CODE     ---       #138
      00FF3337H   LINE      CODE     ---       #139
      00FF3337H   LINE      CODE     ---       #141
      ---         BLOCKEND  ---      ---       LVL=0

      ---         MODULE    ---      ---       ccd
      00FF2F70H   PUBLIC    CODE     ---       ccd_filter
      00FF301BH   PUBLIC    CODE     ---       ccd_filter2
      00FF13A8H   PUBLIC    CODE     ---       ccd_xj
      00000008H   PUBLIC    EDATA    INT       black
      0000000AH   PUBLIC    EDATA    ---       ccd_sum2
      0000010AH   PUBLIC    EDATA    INT       Lboundary_black
      0000010CH   PUBLIC    EDATA    BYTE      Auto
      0000010DH   PUBLIC    EDATA    INT       outblack_cbh1
      0000010FH   PUBLIC    EDATA    INT       outblack_cbh2
      00000111H   PUBLIC    EDATA    INT       Rboundary_black
      00000113H   PUBLIC    EDATA    FLOAT     ccd_cbh11
      00000117H   PUBLIC    EDATA    FLOAT     ccd_cbh21
      0000011BH   PUBLIC    EDATA    FLOAT     ccd_cbh12
      0000011FH   PUBLIC    EDATA    FLOAT     ccd_cbh22
      00000123H   PUBLIC    EDATA    INT       Broad_width1
      00000125H   PUBLIC    EDATA    INT       Broad_width2
      00000127H   PUBLIC    EDATA    WORD      AD_Average
      00000129H   PUBLIC    EDATA    ---       ccd_value
      00000229H   PUBLIC    EDATA    INT       Threshold
      0000022BH   PUBLIC    EDATA    INT       Lboundary_data
      0000022DH   PUBLIC    EDATA    WORD      Sum
      0000022FH   PUBLIC    EDATA    INT       Rboundary_data
      00000231H   PUBLIC    EDATA    INT       mid
      00000233H   PUBLIC    EDATA    ---       ccd_valu
      00000633H   PUBLIC    EDATA    INT       Lboundary_black2
      00000635H   PUBLIC    EDATA    INT       df
      00000637H   PUBLIC    EDATA    INT       all_black1
      00000639H   PUBLIC    EDATA    INT       all_black2
      0000063BH   PUBLIC    EDATA    WORD      cbh_Average
      0000063DH   PUBLIC    EDATA    INT       Rboundary_black2
      0000063FH   PUBLIC    EDATA    INT       road_width1
      00000641H   PUBLIC    EDATA    ---       ccd_value2
      00000741H   PUBLIC    EDATA    INT       road_width2
      00000743H   PUBLIC    EDATA    ---       ImageDiff
      000007C3H   PUBLIC    EDATA    ---       ccd_sum
      000008C3H   PUBLIC    EDATA    INT       Lboundary_data2
      000008C5H   PUBLIC    EDATA    INT       Rboundary_data2
      000008C7H   PUBLIC    EDATA    INT       all_white1
      000008C9H   PUBLIC    EDATA    INT       all_white2
L251 LINKER/LOCATER V4.66.93.0                                                        05/01/2022  09:46:42  PAGE 74


      000008CBH   PUBLIC    EDATA    INT       ts_hold
      000008CDH   PUBLIC    EDATA    FLOAT     black_cbh11
      000008D1H   PUBLIC    EDATA    FLOAT     black_cbh21
      000008D5H   PUBLIC    EDATA    FLOAT     black_cbh12
      000008D9H   PUBLIC    EDATA    INT       Outside_black1
      000008DBH   PUBLIC    EDATA    FLOAT     black_cbh22
      000008DFH   PUBLIC    EDATA    INT       Outside_black2
      000008E1H   PUBLIC    EDATA    ---       ccd_valu1
      00000CE1H   PUBLIC    EDATA    ---       ccd_valu2
      000010E1H   PUBLIC    EDATA    INT       black_flag
      000000D0H   SFRSYM    DATA     BYTE      PSW
      00000088H   SFRSYM    DATA     BYTE      TCON
      00000098H   SFRSYM    DATA     BYTE      SCON
      000000B8H   SFRSYM    DATA     BYTE      IP
      000000A8H   SFRSYM    DATA     BYTE      IE
      000000F8H   SFRSYM    DATA     BYTE      P7
      000000E8H   SFRSYM    DATA     BYTE      P6
      000000C8H   SFRSYM    DATA     BYTE      P5
      000000C0H   SFRSYM    DATA     BYTE      P4
      000000B0H   SFRSYM    DATA     BYTE      P3
      000000A0H   SFRSYM    DATA     BYTE      P2
      00000090H   SFRSYM    DATA     BYTE      P1
      00000080H   SFRSYM    DATA     BYTE      P0

      00FF2F70H   BLOCK     CODE     ---       LVL=0
      WR0         REGSYM    ---      INT       i
      WR6         REGSYM    ---      INT       j
      WR4         REGSYM    ---      INT       k
      WR10        REGSYM    ---      INT       temp
      00FF2F70H   LINE      CODE     ---       #24
      00FF2F70H   LINE      CODE     ---       #25
      00FF2F70H   LINE      CODE     ---       #28
      00FF2F72H   LINE      CODE     ---       #30
      00FF2F74H   LINE      CODE     ---       #32
      00FF2F8EH   LINE      CODE     ---       #33
      00FF2F96H   LINE      CODE     ---       #34
      00FF2F9EH   LINE      CODE     ---       #36
      00FF2FA2H   LINE      CODE     ---       #38
      00FF2FA4H   LINE      CODE     ---       #40
      00FF2FA8H   LINE      CODE     ---       #42
      00FF2FC2H   LINE      CODE     ---       #44
      00FF2FC2H   LINE      CODE     ---       #45
      00FF2FC6H   LINE      CODE     ---       #46
      00FF2FCAH   LINE      CODE     ---       #47
      00FF2FD6H   LINE      CODE     ---       #49
      00FF2FDEH   LINE      CODE     ---       #50
      00FF2FE6H   LINE      CODE     ---       #52
      00FF2FE8H   LINE      CODE     ---       #54
      00FF3008H   LINE      CODE     ---       #55
      00FF3012H   LINE      CODE     ---       #56
      00FF301AH   LINE      CODE     ---       #58
      ---         BLOCKEND  ---      ---       LVL=0

      00FF301BH   BLOCK     CODE     ---       LVL=0
      WR0         REGSYM    ---      INT       i
      WR6         REGSYM    ---      INT       j
      WR4         REGSYM    ---      INT       k
      WR10        REGSYM    ---      INT       temp
      00FF301BH   LINE      CODE     ---       #67
      00FF301BH   LINE      CODE     ---       #68
      00FF301BH   LINE      CODE     ---       #71
      00FF301DH   LINE      CODE     ---       #73
      00FF301FH   LINE      CODE     ---       #75
      00FF3039H   LINE      CODE     ---       #76
      00FF3041H   LINE      CODE     ---       #77
L251 LINKER/LOCATER V4.66.93.0                                                        05/01/2022  09:46:42  PAGE 75


      00FF3049H   LINE      CODE     ---       #79
      00FF304DH   LINE      CODE     ---       #81
      00FF304FH   LINE      CODE     ---       #83
      00FF3053H   LINE      CODE     ---       #85
      00FF306DH   LINE      CODE     ---       #87
      00FF306DH   LINE      CODE     ---       #88
      00FF3071H   LINE      CODE     ---       #89
      00FF3075H   LINE      CODE     ---       #90
      00FF3081H   LINE      CODE     ---       #92
      00FF3089H   LINE      CODE     ---       #93
      00FF3091H   LINE      CODE     ---       #95
      00FF3093H   LINE      CODE     ---       #97
      00FF30B3H   LINE      CODE     ---       #98
      00FF30BDH   LINE      CODE     ---       #99
      00FF30C5H   LINE      CODE     ---       #100
      ---         BLOCKEND  ---      ---       LVL=0
      REG=3       REGSYM    ---      ---       image
      REG=7       REGSYM    ---      ---       image
      R5          REGSYM    ---      BYTE      i
      WR6         REGSYM    ---      WORD      sum
      WR6         REGSYM    ---      WORD      ccd_average1
      REG=3       REGSYM    ---      ---       image
      R11         REGSYM    ---      BYTE      New_Threshold

      00FF13A8H   BLOCK     CODE     ---       LVL=0
      WR30        REGSYM    ---      INT       i
      WR28        REGSYM    ---      INT       j
      00FF13A8H   LINE      CODE     ---       #169
      00FF13A8H   LINE      CODE     ---       #170
      00FF13A8H   LINE      CODE     ---       #173
      00FF13ACH   LINE      CODE     ---       #175
      00FF13BAH   LINE      CODE     ---       #177
      00FF13BAH   LINE      CODE     ---       #178
      00FF13BAH   LINE      CODE     ---       #179
      00FF13C0H   LINE      CODE     ---       #181
      00FF13C8H   LINE      CODE     ---       #182
      00FF13C8H   LINE      CODE     ---       #183
      00FF13D2H   LINE      CODE     ---       #185
      00FF13D2H   LINE      CODE     ---       #186
      00FF13D2H   LINE      CODE     ---       #187
      00FF13D8H   LINE      CODE     ---       #189
      00FF13E0H   LINE      CODE     ---       #190
      00FF13E0H   LINE      CODE     ---       #192
      00FF13E6H   LINE      CODE     ---       #194
      00FF13E6H   LINE      CODE     ---       #195
      00FF13E6H   LINE      CODE     ---       #196
      00FF13ECH   LINE      CODE     ---       #198
      00FF13F4H   LINE      CODE     ---       #199
      00FF13F4H   LINE      CODE     ---       #201
      00FF13FAH   LINE      CODE     ---       #203
      00FF13FAH   LINE      CODE     ---       #204
      00FF13FAH   LINE      CODE     ---       #205
      00FF1400H   LINE      CODE     ---       #207
      00FF1408H   LINE      CODE     ---       #208
      00FF1410H   LINE      CODE     ---       #216
      00FF1432H   LINE      CODE     ---       #218
      00FF1436H   LINE      CODE     ---       #219
      00FF143AH   LINE      CODE     ---       #220
      00FF143EH   LINE      CODE     ---       #221
      00FF1442H   LINE      CODE     ---       #222
      00FF1445H   LINE      CODE     ---       #227
      00FF1449H   LINE      CODE     ---       #229
      00FF1479H   LINE      CODE     ---       #231
      00FF1487H   LINE      CODE     ---       #233
      00FF148BH   LINE      CODE     ---       #234
L251 LINKER/LOCATER V4.66.93.0                                                        05/01/2022  09:46:42  PAGE 76


      00FF148DH   LINE      CODE     ---       #235
      00FF148DH   LINE      CODE     ---       #238
      00FF1495H   LINE      CODE     ---       #239
      00FF1495H   LINE      CODE     ---       #240
      00FF149DH   LINE      CODE     ---       #242
      00FF14A1H   LINE      CODE     ---       #244
      00FF14D1H   LINE      CODE     ---       #246
      00FF14DFH   LINE      CODE     ---       #248
      00FF14E3H   LINE      CODE     ---       #249
      00FF14E5H   LINE      CODE     ---       #250
      00FF14E5H   LINE      CODE     ---       #253
      00FF14EDH   LINE      CODE     ---       #254
      00FF14EDH   LINE      CODE     ---       #255
      00FF14F5H   LINE      CODE     ---       #257
      00FF14F9H   LINE      CODE     ---       #259
      00FF1529H   LINE      CODE     ---       #261
      00FF1537H   LINE      CODE     ---       #263
      00FF153BH   LINE      CODE     ---       #264
      00FF153DH   LINE      CODE     ---       #265
      00FF153DH   LINE      CODE     ---       #268
      00FF1545H   LINE      CODE     ---       #269
      00FF1545H   LINE      CODE     ---       #270
      00FF154DH   LINE      CODE     ---       #272
      00FF1551H   LINE      CODE     ---       #274
      00FF1581H   LINE      CODE     ---       #276
      00FF158FH   LINE      CODE     ---       #278
      00FF1593H   LINE      CODE     ---       #279
      00FF1595H   LINE      CODE     ---       #280
      00FF1595H   LINE      CODE     ---       #283
      00FF159DH   LINE      CODE     ---       #284
      00FF159DH   LINE      CODE     ---       #285
      00FF15A5H   LINE      CODE     ---       #287
      00FF15A7H   LINE      CODE     ---       #289
      00FF15D8H   LINE      CODE     ---       #291
      00FF15E2H   LINE      CODE     ---       #293
      00FF15E6H   LINE      CODE     ---       #294
      00FF15E8H   LINE      CODE     ---       #295
      00FF15E8H   LINE      CODE     ---       #298
      00FF15EEH   LINE      CODE     ---       #299
      00FF15EEH   LINE      CODE     ---       #300
      00FF15F6H   LINE      CODE     ---       #302
      00FF15FAH   LINE      CODE     ---       #304
      00FF162BH   LINE      CODE     ---       #306
      00FF1631H   LINE      CODE     ---       #308
      00FF1635H   LINE      CODE     ---       #309
      00FF1637H   LINE      CODE     ---       #310
      00FF1637H   LINE      CODE     ---       #313
      00FF163FH   LINE      CODE     ---       #314
      00FF163FH   LINE      CODE     ---       #315
      00FF1647H   LINE      CODE     ---       #316
      00FF1647H   LINE      CODE     ---       #320
      00FF164BH   LINE      CODE     ---       #322
      00FF167BH   LINE      CODE     ---       #324
      00FF1689H   LINE      CODE     ---       #327
      00FF168DH   LINE      CODE     ---       #328
      00FF168FH   LINE      CODE     ---       #329
      00FF168FH   LINE      CODE     ---       #332
      00FF1697H   LINE      CODE     ---       #333
      00FF1697H   LINE      CODE     ---       #334
      00FF169FH   LINE      CODE     ---       #336
      00FF16A3H   LINE      CODE     ---       #338
      00FF16D3H   LINE      CODE     ---       #340
      00FF16E1H   LINE      CODE     ---       #343
      00FF16E5H   LINE      CODE     ---       #344
      00FF16E7H   LINE      CODE     ---       #345
L251 LINKER/LOCATER V4.66.93.0                                                        05/01/2022  09:46:42  PAGE 77


      00FF16E7H   LINE      CODE     ---       #348
      00FF16EFH   LINE      CODE     ---       #349
      00FF16EFH   LINE      CODE     ---       #350
      00FF16F7H   LINE      CODE     ---       #352
      00FF16FBH   LINE      CODE     ---       #354
      00FF172BH   LINE      CODE     ---       #356
      00FF1739H   LINE      CODE     ---       #358
      00FF173DH   LINE      CODE     ---       #359
      00FF173FH   LINE      CODE     ---       #360
      00FF173FH   LINE      CODE     ---       #363
      00FF1747H   LINE      CODE     ---       #364
      00FF1747H   LINE      CODE     ---       #365
      00FF174FH   LINE      CODE     ---       #367
      00FF1753H   LINE      CODE     ---       #369
      00FF1783H   LINE      CODE     ---       #371
      00FF1791H   LINE      CODE     ---       #373
      00FF1795H   LINE      CODE     ---       #374
      00FF1797H   LINE      CODE     ---       #375
      00FF1797H   LINE      CODE     ---       #378
      00FF179FH   LINE      CODE     ---       #379
      00FF179FH   LINE      CODE     ---       #380
      00FF17A7H   LINE      CODE     ---       #382
      00FF17BCH   LINE      CODE     ---       #383
      00FF17C4H   LINE      CODE     ---       #384
      00FF17D0H   LINE      CODE     ---       #385
      00FF17DCH   LINE      CODE     ---       #386
      00FF17E8H   LINE      CODE     ---       #387
      00FF17F4H   LINE      CODE     ---       #388
      ---         BLOCKEND  ---      ---       LVL=0

      ---         MODULE    ---      ---       ?C_START
      00FF0000H   PUBLIC    CODE     ---       ?C?STARTUP
      00FF0000H   PUBLIC    CODE     ---       ?C_STARTUP

      ---         MODULE    ---      ---       ?C?INITEDATA
      00FF38B6H   PUBLIC    CODE     ---       ?C?INITEDATA

      ---         MODULE    ---      ---       ?C?SIDIV
      00FF2B0AH   PUBLIC    CODE     ---       ?C?SIDIV

      ---         MODULE    ---      ---       ?C?LMUL
      00FF2B3CH   PUBLIC    CODE     ---       ?C?LMUL

      ---         MODULE    ---      ---       ?C?LIMUL
      00FF2B4DH   PUBLIC    CODE     ---       ?C?LIMUL

      ---         MODULE    ---      ---       ?C?ULDIV
      00FF2B58H   PUBLIC    CODE     NEAR LAB  ?C?ULDIV
      00FF2B56H   PUBLIC    CODE     NEAR LAB  ?C?ULIDIV

      ---         MODULE    ---      ---       ?C?SLDIV
      00FF2BA9H   PUBLIC    CODE     NEAR LAB  ?C?SLDIV

      ---         MODULE    ---      ---       ABS

      ---         MODULE    ---      ---       memcpy
      00FF3ABFH   PUBLIC    CODE     ---       memcpy?_

      ---         MODULE    ---      ---       ?C?INITEDATA_END
      00FF3D73H   PUBLIC    HCONST   WORD      ?C?INITEDATA_END

Program Size: data=8.0 edata+hdata=6061 xdata=0 const=648 code=15323
L251 RUN COMPLETE.  0 WARNING(S),  0 ERROR(S)
